

Microchip MPLAB XC8 Assembler V2.05 build -831301201 
                                                                                               Thu Apr 11 01:34:00 2019

Microchip MPLAB XC8 C Compiler v2.05 (Free license) build 20181220022703 Og1 
     1                           	processor	18F4431
     2                           	fnconf	rparam,??,?,0
     3                           	opt	pw 120
     4                           	opt	flic
     5                           	psect	smallconst,global,reloc=2,class=SMALLCONST,delta=1,noexec
     6                           	psect	cinit,global,reloc=2,class=CODE,delta=1
     7                           	psect	bssBANK0,global,class=BANK0,space=1,delta=1,lowdata,noexec
     8                           	psect	bssBANK1,global,class=BANK1,space=1,delta=1,lowdata,noexec
     9                           	psect	cstackBANK0,global,class=BANK0,space=1,delta=1,noexec
    10                           	psect	cstackCOMRAM,global,class=COMRAM,space=1,delta=1,noexec
    11                           	psect	text0,global,reloc=2,class=CODE,delta=1
    12                           	psect	text1,global,reloc=2,class=CODE,delta=1
    13                           	psect	text2,global,reloc=2,class=CODE,delta=1,group=2
    14                           	psect	text3,global,reloc=2,class=CODE,delta=1
    15                           	psect	text4,global,reloc=2,class=CODE,delta=1
    16                           	psect	text5,global,reloc=2,class=CODE,delta=1
    17                           	psect	text6,global,reloc=2,class=CODE,delta=1,group=2
    18                           	psect	text7,global,reloc=2,class=CODE,delta=1,group=2
    19                           	psect	text8,global,reloc=2,class=CODE,delta=1
    20                           	psect	text9,global,reloc=2,class=CODE,delta=1,group=2
    21                           	psect	text10,global,reloc=2,class=CODE,delta=1,group=2
    22                           	psect	text11,global,reloc=2,class=CODE,delta=1,group=2
    23                           	psect	text12,global,reloc=2,class=CODE,delta=1
    24                           	psect	text13,global,reloc=2,class=CODE,delta=1,group=2
    25                           	psect	text14,global,reloc=2,class=CODE,delta=1,group=2
    26                           	psect	text15,global,reloc=2,class=CODE,delta=1
    27                           	psect	text16,global,reloc=2,class=CODE,delta=1
    28                           	psect	text17,global,reloc=2,class=CODE,delta=1
    29                           	psect	text18,global,reloc=2,class=CODE,delta=1
    30                           	psect	intcodelo,global,reloc=2,class=CODE,delta=1
    31                           	psect	intcode,global,reloc=2,class=CODE,delta=1
    32                           	psect	intcode_body,global,reloc=2,class=CODE,delta=1
    33                           	psect	text21,global,reloc=2,class=CODE,delta=1
    34                           	psect	text22,global,reloc=2,class=CODE,delta=1
    35                           	psect	text23,global,reloc=2,class=CODE,delta=1
    36                           	psect	text24,global,reloc=2,class=CODE,delta=1
    37                           	psect	text25,global,reloc=2,class=CODE,delta=1
    38                           	psect	text26,global,reloc=2,class=CODE,delta=1
    39                           	psect	text27,global,reloc=2,class=CODE,delta=1
    40                           	psect	text28,global,reloc=2,class=CODE,delta=1
    41                           	psect	text29,global,reloc=2,class=CODE,delta=1
    42                           	psect	text30,global,reloc=2,class=CODE,delta=1
    43                           	psect	text31,global,reloc=2,class=CODE,delta=1
    44                           	psect	text32,global,reloc=2,class=CODE,delta=1
    45                           	psect	text33,global,reloc=2,class=CODE,delta=1
    46                           	psect	intsave_regs,global,class=BIGRAM,space=1,delta=1,noexec
    47                           	psect	rparam,global,class=COMRAM,space=1,delta=1,noexec
    48                           	psect	temp,global,ovrld,common,class=COMRAM,space=1,delta=1
    49  0000                     
    50                           ; Version 2.05
    51                           ; Generated 20/12/2018 GMT
    52                           ; 
    53                           ; Copyright © 2018, Microchip Technology Inc. and its subsidiaries ("Microchip")
    54                           ; All rights reserved.
    55                           ; 
    56                           ; This software is developed by Microchip Technology Inc. and its subsidiaries ("Microch
      +                          ip").
    57                           ; 
    58                           ; Redistribution and use in source and binary forms, with or without modification, are
    59                           ; permitted provided that the following conditions are met:
    60                           ; 
    61                           ;     1. Redistributions of source code must retain the above copyright notice, this lis
      +                          t of
    62                           ;        conditions and the following disclaimer.
    63                           ; 
    64                           ;     2. Redistributions in binary form must reproduce the above copyright notice, this 
      +                          list
    65                           ;        of conditions and the following disclaimer in the documentation and/or other
    66                           ;        materials provided with the distribution.
    67                           ; 
    68                           ;     3. Microchip's name may not be used to endorse or promote products derived from th
      +                          is
    69                           ;        software without specific prior written permission.
    70                           ; 
    71                           ; THIS SOFTWARE IS PROVIDED BY MICROCHIP "AS IS" AND ANY EXPRESS OR IMPLIED WARRANTIES,
    72                           ; INCLUDING, BUT NOT LIMITED TO, THE IMPLIED WARRANTIES OF MERCHANTABILITY AND FITNESS F
      +                          OR
    73                           ; PURPOSE ARE DISCLAIMED.  IN NO EVENT SHALL MICROCHIP BE LIABLE FOR ANY DIRECT, INDIREC
      +                          T,
    74                           ; INCIDENTAL, SPECIAL, EXEMPLARY, OR CONSEQUENTIAL DAMAGES (INCLUDING BUT NOT LIMITED TO
    75                           ; PROCUREMENT OF SUBSTITUTE GOODS OR SERVICES; LOSS OF USE, DATA OR PROFITS; OR BUSINESS
    76                           ; INTERRUPTION) HOWSOEVER CAUSED AND ON ANY THEORY OF LIABILITY, WHETHER IN CONTRACT, ST
      +                          RICT
    77                           ; LIABILITY, OR TORT (INCLUDING NEGLIGENCE OR OTHERWISE) ARISING IN ANY WAY OUT OF THE U
      +                          SE OF
    78                           ; THIS SOFTWARE, EVEN IF ADVISED OF THE POSSIBILITY OF SUCH DAMAGE.
    79                           ; 
    80                           ; 
    81                           ; Code-generator required, PIC18F4431 Definitions
    82                           ; 
    83                           ; SFR Addresses
    84  0000                     _TMR0	set	4054
    85  0000                     _TXREG	set	4013
    86  0000                     _TXSTA	set	4012
    87  0000                     _PORTBbits	set	3969
    88  0000                     _PWMCON0bits	set	3951
    89  0000                     _PTCON0bits	set	3967
    90  0000                     _RCONbits	set	4048
    91  0000                     _T0CONbits	set	4053
    92  0000                     _SPBRG1	set	4015
    93  0000                     _BAUDCONbits	set	4010
    94  0000                     _RCSTA1bits	set	4011
    95  0000                     _TXSTA1bits	set	4012
    96  0000                     _TRISCbits	set	3988
    97  0000                     _TRISDbits	set	3989
    98  0000                     _PDC0H	set	3960
    99  0000                     _PDC0L	set	3961
   100  0000                     _PTPERL	set	3963
   101  0000                     _PTPERH	set	3962
   102  0000                     _PWMCON1	set	3950
   103  0000                     _PWMCON0	set	3951
   104  0000                     _PTCON1	set	3966
   105  0000                     _PTCON0	set	3967
   106  0000                     _LATE	set	3981
   107  0000                     _LATD	set	3980
   108  0000                     _LATB	set	3978
   109  0000                     _LATA	set	3977
   110  0000                     _TRISD	set	3989
   111  0000                     _TRISB	set	3987
   112  0000                     _PORTE	set	3972
   113  0000                     _PORTD	set	3971
   114  0000                     _PORTB	set	3969
   115  0000                     _PORTA	set	3968
   116  0000                     _PORTDbits	set	3971
   117  0000                     _INTCONbits	set	4082
   118  0000                     _TXIF	set	31988
   119                           
   120                           	psect	smallconst
   121  000300                     __psmallconst:
   122                           	opt callstack 0
   123  000300  00                 	db	0
   124  000301                     STR_2:
   125  000301  74                 	db	116	;'t'
   126  000302  69                 	db	105	;'i'
   127  000303  6D                 	db	109	;'m'
   128  000304  65                 	db	101	;'e'
   129  000305  72                 	db	114	;'r'
   130  000306  3A                 	db	58	;':'
   131  000307  20                 	db	32
   132  000308  25                 	db	37
   133  000309  78                 	db	120	;'x'
   134  00030A  0D                 	db	13
   135  00030B  0A                 	db	10
   136  00030C  00                 	db	0
   137  00030D  50                 	db	80	;'P'
   138  00030E  57                 	db	87	;'W'
   139  00030F  4D                 	db	77	;'M'
   140  000310  20                 	db	32
   141  000311  45                 	db	69	;'E'
   142  000312  72                 	db	114	;'r'
   143  000313  72                 	db	114	;'r'
   144  000314  6F                 	db	111	;'o'
   145  000315  72                 	db	114	;'r'
   146  000316  00                 	db	0
   147  000317                     STR_1:
   148  000317  74                 	db	116	;'t'
   149  000318  69                 	db	105	;'i'
   150  000319  6D                 	db	109	;'m'
   151  00031A  65                 	db	101	;'e'
   152  00031B  72                 	db	114	;'r'
   153  00031C  21                 	db	33
   154  00031D  0D                 	db	13
   155  00031E  0A                 	db	10
   156  00031F  00                 	db	0
   157                           
   158                           ; #config settings
   159  000320  00                 	db	0	; dummy byte at the end
   160  0000                     
   161                           	psect	cinit
   162  001108                     __pcinit:
   163                           	opt callstack 0
   164  001108                     start_initialization:
   165                           	opt callstack 0
   166  001108                     __initialization:
   167                           	opt callstack 0
   168                           
   169                           ; Clear objects allocated to BANK1 (32 bytes)
   170  001108  EE01  F000         	lfsr	0,__pbssBANK1
   171  00110C  0E20               	movlw	32
   172  00110E                     clear_0:
   173  00110E  6AEE               	clrf	postinc0,c
   174  001110  06E8               	decf	wreg,f,c
   175  001112  E1FD               	bnz	clear_0
   176                           
   177                           ; Clear objects allocated to BANK0 (12 bytes)
   178  001114  EE00  F0D6         	lfsr	0,__pbssBANK0
   179  001118  0E0C               	movlw	12
   180  00111A                     clear_1:
   181  00111A  6AEE               	clrf	postinc0,c
   182  00111C  06E8               	decf	wreg,f,c
   183  00111E  E1FD               	bnz	clear_1
   184  001120                     end_of_initialization:
   185                           	opt callstack 0
   186  001120                     __end_of__initialization:
   187                           	opt callstack 0
   188  001120  905F               	bcf	int$flags,0,c	;clear compiler interrupt flag (level 1)
   189  001122  925F               	bcf	int$flags,1,c	;clear compiler interrupt flag (level 2)
   190  001124  0E00               	movlw	low (__Lsmallconst shr (0+16))
   191  001126  6EF8               	movwf	tblptru,c
   192  001128  0E03               	movlw	high __Lsmallconst
   193  00112A  6EF7               	movwf	tblptrh,c
   194  00112C  0100               	movlb	0
   195  00112E  EFD5  F008         	goto	_main	;jump to C main() function
   196                           
   197                           	psect	bssBANK0
   198  0000D6                     __pbssBANK0:
   199                           	opt callstack 0
   200  0000D6                     _nout:
   201                           	opt callstack 0
   202  0000D6                     	ds	2
   203  0000D8                     _width:
   204                           	opt callstack 0
   205  0000D8                     	ds	2
   206  0000DA                     _prec:
   207                           	opt callstack 0
   208  0000DA                     	ds	2
   209  0000DC                     _flags:
   210                           	opt callstack 0
   211  0000DC                     	ds	2
   212  0000DE                     _PWMPeriod:
   213                           	opt callstack 0
   214  0000DE                     	ds	2
   215  0000E0                     _timer0_var:
   216                           	opt callstack 0
   217  0000E0                     	ds	2
   218                           
   219                           	psect	bssBANK1
   220  000100                     __pbssBANK1:
   221                           	opt callstack 0
   222  000100                     _dbuf:
   223                           	opt callstack 0
   224  000100                     	ds	32
   225                           
   226                           	psect	cstackBANK0
   227  000060                     __pcstackBANK0:
   228                           	opt callstack 0
   229  000060                     ?i2_printf:
   230                           	opt callstack 0
   231  000060                     i2printf@fmt:
   232                           	opt callstack 0
   233                           
   234                           ; 2 bytes @ 0x0
   235  000060                     	ds	2
   236  000062                     i2printf@ret:
   237                           	opt callstack 0
   238                           
   239                           ; 2 bytes @ 0x2
   240  000062                     	ds	2
   241  000064                     i2printf@ap:
   242                           	opt callstack 0
   243                           
   244                           ; 2 bytes @ 0x4
   245  000064                     	ds	2
   246  000066                     ??_high_isr:
   247                           
   248                           ; 1 bytes @ 0x6
   249  000066                     	ds	9
   250  00006F                     ??_low_isr:
   251                           
   252                           ; 1 bytes @ 0xF
   253  00006F                     	ds	1
   254  000070                     ?_strlen:
   255                           	opt callstack 0
   256  000070                     ?_isupper:
   257                           	opt callstack 0
   258  000070                     ?_isalpha:
   259                           	opt callstack 0
   260  000070                     ?_islower:
   261                           	opt callstack 0
   262  000070                     putch@byte:
   263                           	opt callstack 0
   264  000070                     isalpha@c:
   265                           	opt callstack 0
   266  000070                     isupper@c:
   267                           	opt callstack 0
   268  000070                     strlen@s:
   269                           	opt callstack 0
   270  000070                     islower@c:
   271                           	opt callstack 0
   272                           
   273                           ; 2 bytes @ 0x10
   274  000070                     	ds	1
   275  000071                     fputc@c:
   276                           	opt callstack 0
   277                           
   278                           ; 2 bytes @ 0x11
   279  000071                     	ds	1
   280  000072                     ??_isupper:
   281  000072                     ??_isalpha:
   282  000072                     ??_islower:
   283  000072                     strlen@a:
   284                           	opt callstack 0
   285                           
   286                           ; 2 bytes @ 0x12
   287  000072                     	ds	1
   288  000073                     fputc@fp:
   289                           	opt callstack 0
   290                           
   291                           ; 2 bytes @ 0x13
   292  000073                     	ds	2
   293  000075                     ??_fputc:
   294                           
   295                           ; 1 bytes @ 0x15
   296  000075                     	ds	1
   297  000076                     ?_toupper:
   298                           	opt callstack 0
   299  000076                     toupper@c:
   300                           	opt callstack 0
   301                           
   302                           ; 2 bytes @ 0x16
   303  000076                     	ds	2
   304  000078                     ??_toupper:
   305                           
   306                           ; 1 bytes @ 0x18
   307  000078                     	ds	2
   308  00007A                     fputs@s:
   309                           	opt callstack 0
   310                           
   311                           ; 2 bytes @ 0x1A
   312  00007A                     	ds	2
   313  00007C                     fputs@fp:
   314                           	opt callstack 0
   315  00007C                     _toupper$1335:
   316                           	opt callstack 0
   317                           
   318                           ; 2 bytes @ 0x1C
   319  00007C                     	ds	2
   320  00007E                     fputs@c:
   321                           	opt callstack 0
   322                           
   323                           ; 1 bytes @ 0x1E
   324  00007E                     	ds	1
   325  00007F                     fputs@i:
   326                           	opt callstack 0
   327                           
   328                           ; 2 bytes @ 0x1F
   329  00007F                     	ds	2
   330  000081                     ?_pad:
   331                           	opt callstack 0
   332  000081                     pad@fp:
   333                           	opt callstack 0
   334                           
   335                           ; 2 bytes @ 0x21
   336  000081                     	ds	2
   337  000083                     pad@buf:
   338                           	opt callstack 0
   339                           
   340                           ; 2 bytes @ 0x23
   341  000083                     	ds	2
   342  000085                     pad@p:
   343                           	opt callstack 0
   344                           
   345                           ; 2 bytes @ 0x25
   346  000085                     	ds	2
   347  000087                     ??_pad:
   348                           
   349                           ; 1 bytes @ 0x27
   350  000087                     	ds	1
   351  000088                     pad@i:
   352                           	opt callstack 0
   353                           
   354                           ; 2 bytes @ 0x28
   355  000088                     	ds	2
   356  00008A                     pad@w:
   357                           	opt callstack 0
   358                           
   359                           ; 2 bytes @ 0x2A
   360  00008A                     	ds	2
   361  00008C                     ?_xtoa:
   362                           	opt callstack 0
   363  00008C                     xtoa@fp:
   364                           	opt callstack 0
   365                           
   366                           ; 2 bytes @ 0x2C
   367  00008C                     	ds	2
   368  00008E                     xtoa@d:
   369                           	opt callstack 0
   370                           
   371                           ; 8 bytes @ 0x2E
   372  00008E                     	ds	8
   373  000096                     xtoa@x:
   374                           	opt callstack 0
   375                           
   376                           ; 1 bytes @ 0x36
   377  000096                     	ds	1
   378  000097                     ??_xtoa:
   379                           
   380                           ; 1 bytes @ 0x37
   381  000097                     	ds	8
   382  00009F                     _xtoa$805:
   383                           	opt callstack 0
   384                           
   385                           ; 2 bytes @ 0x3F
   386  00009F                     	ds	2
   387  0000A1                     _xtoa$806:
   388                           	opt callstack 0
   389                           
   390                           ; 2 bytes @ 0x41
   391  0000A1                     	ds	2
   392  0000A3                     xtoa@p:
   393                           	opt callstack 0
   394                           
   395                           ; 2 bytes @ 0x43
   396  0000A3                     	ds	2
   397  0000A5                     xtoa@w:
   398                           	opt callstack 0
   399                           
   400                           ; 2 bytes @ 0x45
   401  0000A5                     	ds	2
   402  0000A7                     xtoa@n:
   403                           	opt callstack 0
   404                           
   405                           ; 8 bytes @ 0x47
   406  0000A7                     	ds	8
   407  0000AF                     xtoa@i:
   408                           	opt callstack 0
   409                           
   410                           ; 2 bytes @ 0x4F
   411  0000AF                     	ds	2
   412  0000B1                     xtoa@c:
   413                           	opt callstack 0
   414                           
   415                           ; 2 bytes @ 0x51
   416  0000B1                     	ds	2
   417  0000B3                     ?_vfpfcnvrt:
   418                           	opt callstack 0
   419  0000B3                     vfpfcnvrt@fp:
   420                           	opt callstack 0
   421                           
   422                           ; 2 bytes @ 0x53
   423  0000B3                     	ds	2
   424  0000B5                     vfpfcnvrt@fmt:
   425                           	opt callstack 0
   426                           
   427                           ; 2 bytes @ 0x55
   428  0000B5                     	ds	2
   429  0000B7                     vfpfcnvrt@ap:
   430                           	opt callstack 0
   431                           
   432                           ; 2 bytes @ 0x57
   433  0000B7                     	ds	2
   434  0000B9                     ??_vfpfcnvrt:
   435                           
   436                           ; 1 bytes @ 0x59
   437  0000B9                     	ds	4
   438  0000BD                     vfpfcnvrt@llu:
   439                           	opt callstack 0
   440                           
   441                           ; 8 bytes @ 0x5D
   442  0000BD                     	ds	8
   443  0000C5                     vfpfcnvrt@c:
   444                           	opt callstack 0
   445                           
   446                           ; 1 bytes @ 0x65
   447  0000C5                     	ds	1
   448  0000C6                     ?_vfprintf:
   449                           	opt callstack 0
   450  0000C6                     vfprintf@fp:
   451                           	opt callstack 0
   452                           
   453                           ; 2 bytes @ 0x66
   454  0000C6                     	ds	2
   455  0000C8                     vfprintf@fmt:
   456                           	opt callstack 0
   457                           
   458                           ; 2 bytes @ 0x68
   459  0000C8                     	ds	2
   460  0000CA                     vfprintf@ap:
   461                           	opt callstack 0
   462                           
   463                           ; 2 bytes @ 0x6A
   464  0000CA                     	ds	2
   465  0000CC                     vfprintf@cfmt:
   466                           	opt callstack 0
   467                           
   468                           ; 2 bytes @ 0x6C
   469  0000CC                     	ds	2
   470  0000CE                     ?_printf:
   471                           	opt callstack 0
   472  0000CE                     printf@fmt:
   473                           	opt callstack 0
   474                           
   475                           ; 2 bytes @ 0x6E
   476  0000CE                     	ds	4
   477  0000D2                     
   478                           ; 1 bytes @ 0x72
   479  0000D2                     	ds	2
   480  0000D4                     printf@ap:
   481                           	opt callstack 0
   482                           
   483                           ; 2 bytes @ 0x74
   484  0000D4                     	ds	2
   485  0000D6                     
   486                           ; 1 bytes @ 0x76
   487                           
   488                           	psect	cstackCOMRAM
   489  000001                     __pcstackCOMRAM:
   490                           	opt callstack 0
   491  000001                     ?i2_isalpha:
   492                           	opt callstack 0
   493  000001                     ?i2_isupper:
   494                           	opt callstack 0
   495  000001                     ?i2_strlen:
   496                           	opt callstack 0
   497  000001                     ?i2_islower:
   498                           	opt callstack 0
   499  000001                     i2putch@byte:
   500                           	opt callstack 0
   501  000001                     i2isalpha@c:
   502                           	opt callstack 0
   503  000001                     i2isupper@c:
   504                           	opt callstack 0
   505  000001                     i2strlen@s:
   506                           	opt callstack 0
   507  000001                     i2islower@c:
   508                           	opt callstack 0
   509                           
   510                           ; 2 bytes @ 0x0
   511  000001                     	ds	1
   512  000002                     i2fputc@c:
   513                           	opt callstack 0
   514                           
   515                           ; 2 bytes @ 0x1
   516  000002                     	ds	1
   517  000003                     ??i2_isalpha:
   518  000003                     ??i2_isupper:
   519  000003                     ??i2_islower:
   520  000003                     i2strlen@a:
   521                           	opt callstack 0
   522                           
   523                           ; 2 bytes @ 0x2
   524  000003                     	ds	1
   525  000004                     i2fputc@fp:
   526                           	opt callstack 0
   527                           
   528                           ; 2 bytes @ 0x3
   529  000004                     	ds	2
   530  000006                     ??i2_fputc:
   531                           
   532                           ; 1 bytes @ 0x5
   533  000006                     	ds	1
   534  000007                     ?i2_toupper:
   535                           	opt callstack 0
   536  000007                     i2toupper@c:
   537                           	opt callstack 0
   538                           
   539                           ; 2 bytes @ 0x6
   540  000007                     	ds	2
   541  000009                     ??i2_toupper:
   542                           
   543                           ; 1 bytes @ 0x8
   544  000009                     	ds	2
   545  00000B                     i2fputs@s:
   546                           	opt callstack 0
   547                           
   548                           ; 2 bytes @ 0xA
   549  00000B                     	ds	2
   550  00000D                     i2fputs@fp:
   551                           	opt callstack 0
   552  00000D                     i2_toupper$1335:
   553                           	opt callstack 0
   554                           
   555                           ; 2 bytes @ 0xC
   556  00000D                     	ds	2
   557  00000F                     i2fputs@c:
   558                           	opt callstack 0
   559                           
   560                           ; 1 bytes @ 0xE
   561  00000F                     	ds	1
   562  000010                     i2fputs@i:
   563                           	opt callstack 0
   564                           
   565                           ; 2 bytes @ 0xF
   566  000010                     	ds	2
   567  000012                     ?i2_pad:
   568                           	opt callstack 0
   569  000012                     i2pad@fp:
   570                           	opt callstack 0
   571                           
   572                           ; 2 bytes @ 0x11
   573  000012                     	ds	2
   574  000014                     i2pad@buf:
   575                           	opt callstack 0
   576                           
   577                           ; 2 bytes @ 0x13
   578  000014                     	ds	2
   579  000016                     i2pad@p:
   580                           	opt callstack 0
   581                           
   582                           ; 2 bytes @ 0x15
   583  000016                     	ds	2
   584  000018                     ??i2_pad:
   585                           
   586                           ; 1 bytes @ 0x17
   587  000018                     	ds	1
   588  000019                     i2pad@i:
   589                           	opt callstack 0
   590                           
   591                           ; 2 bytes @ 0x18
   592  000019                     	ds	2
   593  00001B                     i2pad@w:
   594                           	opt callstack 0
   595                           
   596                           ; 2 bytes @ 0x1A
   597  00001B                     	ds	2
   598  00001D                     ?i2_xtoa:
   599                           	opt callstack 0
   600  00001D                     i2xtoa@fp:
   601                           	opt callstack 0
   602                           
   603                           ; 2 bytes @ 0x1C
   604  00001D                     	ds	2
   605  00001F                     i2xtoa@d:
   606                           	opt callstack 0
   607                           
   608                           ; 8 bytes @ 0x1E
   609  00001F                     	ds	8
   610  000027                     i2xtoa@x:
   611                           	opt callstack 0
   612                           
   613                           ; 1 bytes @ 0x26
   614  000027                     	ds	1
   615  000028                     ??i2_xtoa:
   616                           
   617                           ; 1 bytes @ 0x27
   618  000028                     	ds	8
   619  000030                     i2_xtoa$805:
   620                           	opt callstack 0
   621                           
   622                           ; 2 bytes @ 0x2F
   623  000030                     	ds	2
   624  000032                     i2_xtoa$806:
   625                           	opt callstack 0
   626                           
   627                           ; 2 bytes @ 0x31
   628  000032                     	ds	2
   629  000034                     i2xtoa@p:
   630                           	opt callstack 0
   631                           
   632                           ; 2 bytes @ 0x33
   633  000034                     	ds	2
   634  000036                     i2xtoa@w:
   635                           	opt callstack 0
   636                           
   637                           ; 2 bytes @ 0x35
   638  000036                     	ds	2
   639  000038                     i2xtoa@n:
   640                           	opt callstack 0
   641                           
   642                           ; 8 bytes @ 0x37
   643  000038                     	ds	8
   644  000040                     i2xtoa@i:
   645                           	opt callstack 0
   646                           
   647                           ; 2 bytes @ 0x3F
   648  000040                     	ds	2
   649  000042                     i2xtoa@c:
   650                           	opt callstack 0
   651                           
   652                           ; 2 bytes @ 0x41
   653  000042                     	ds	2
   654  000044                     ?i2_vfpfcnvrt:
   655                           	opt callstack 0
   656  000044                     i2vfpfcnvrt@fp:
   657                           	opt callstack 0
   658                           
   659                           ; 2 bytes @ 0x43
   660  000044                     	ds	2
   661  000046                     i2vfpfcnvrt@fmt:
   662                           	opt callstack 0
   663                           
   664                           ; 2 bytes @ 0x45
   665  000046                     	ds	2
   666  000048                     i2vfpfcnvrt@ap:
   667                           	opt callstack 0
   668                           
   669                           ; 2 bytes @ 0x47
   670  000048                     	ds	2
   671  00004A                     ??i2_vfpfcnvrt:
   672                           
   673                           ; 1 bytes @ 0x49
   674  00004A                     	ds	4
   675  00004E                     i2vfpfcnvrt@llu:
   676                           	opt callstack 0
   677                           
   678                           ; 8 bytes @ 0x4D
   679  00004E                     	ds	8
   680  000056                     i2vfpfcnvrt@c:
   681                           	opt callstack 0
   682                           
   683                           ; 1 bytes @ 0x55
   684  000056                     	ds	1
   685  000057                     ?i2_vfprintf:
   686                           	opt callstack 0
   687  000057                     i2vfprintf@fp:
   688                           	opt callstack 0
   689                           
   690                           ; 2 bytes @ 0x56
   691  000057                     	ds	2
   692  000059                     i2vfprintf@fmt:
   693                           	opt callstack 0
   694                           
   695                           ; 2 bytes @ 0x58
   696  000059                     	ds	2
   697  00005B                     i2vfprintf@ap:
   698                           	opt callstack 0
   699                           
   700                           ; 2 bytes @ 0x5A
   701  00005B                     	ds	2
   702  00005D                     i2vfprintf@cfmt:
   703                           	opt callstack 0
   704                           
   705                           ; 2 bytes @ 0x5C
   706  00005D                     	ds	2
   707  00005F                     
   708                           ; 1 bytes @ 0x5E
   709 ;;
   710 ;;Main: autosize = 0, tempsize = 0, incstack = 0, save=0
   711 ;;
   712 ;; *************** function _main *****************
   713 ;; Defined at:
   714 ;;		line 36 in file "main.c"
   715 ;; Parameters:    Size  Location     Type
   716 ;;		None
   717 ;; Auto vars:     Size  Location     Type
   718 ;;  val             2    0        int 
   719 ;;  x               1    0        unsigned char 
   720 ;; Return value:  Size  Location     Type
   721 ;;                  1    wreg      void 
   722 ;; Registers used:
   723 ;;		wreg, fsr1l, fsr1h, fsr2l, fsr2h, status,2, status,0, tblptrl, tblptrh, tblptru, cstack
   724 ;; Tracked objects:
   725 ;;		On entry : 0/0
   726 ;;		On exit  : 0/0
   727 ;;		Unchanged: 0/0
   728 ;; Data sizes:     COMRAM   BANK0   BANK1   BANK2
   729 ;;      Params:         0       0       0       0
   730 ;;      Locals:         0       2       0       0
   731 ;;      Temps:          0       0       0       0
   732 ;;      Totals:         0       2       0       0
   733 ;;Total ram usage:        2 bytes
   734 ;; Hardware stack levels required when called:   18
   735 ;; This function calls:
   736 ;;		_ConfigureOscillator
   737 ;;		_InitApp
   738 ;;		_printf
   739 ;;		_test
   740 ;; This function is called by:
   741 ;;		Startup code after reset
   742 ;; This function uses a non-reentrant model
   743 ;;
   744                           
   745                           	psect	text0
   746  0011AA                     __ptext0:
   747                           	opt callstack 0
   748  0011AA                     _main:
   749                           	opt callstack 13
   750                           
   751                           ;main.c: 39:     ConfigureOscillator();
   752                           
   753                           ;incstack = 0
   754  0011AA  EC0E  F009         	call	_ConfigureOscillator	;wreg free
   755                           
   756                           ;main.c: 42:     InitApp();
   757  0011AE  EC07  F009         	call	_InitApp	;wreg free
   758                           
   759                           ;main.c: 44:     test();
   760  0011B2  EC3A  F007         	call	_test	;wreg free
   761  0011B6                     
   762                           ;main.c: 52:     {;main.c: 54:         printf("timer: %x\r\n", TMR0);
   763  0011B6  0E01               	movlw	low STR_2
   764  0011B8  0100               	movlb	0	; () banked
   765  0011BA  6FCE               	movwf	printf@fmt& (0+255),b
   766  0011BC  0E03               	movlw	high STR_2
   767  0011BE  6FCF               	movwf	(printf@fmt+1)& (0+255),b
   768  0011C0  CFD6 F0D0          	movff	4054,?_printf+2	;volatile
   769  0011C4  CFD7 F0D1          	movff	4055,?_printf+3	;volatile
   770  0011C8  ECAE  F008         	call	_printf	;wreg free
   771  0011CC  D7F4               	goto	l2041
   772  0011CE                     __end_of_main:
   773                           	opt callstack 0
   774                           
   775 ;; *************** function _test *****************
   776 ;; Defined at:
   777 ;;		line 73 in file "main.c"
   778 ;; Parameters:    Size  Location     Type
   779 ;;		None
   780 ;; Auto vars:     Size  Location     Type
   781 ;;		None
   782 ;; Return value:  Size  Location     Type
   783 ;;                  1    wreg      void 
   784 ;; Registers used:
   785 ;;		wreg, status,2
   786 ;; Tracked objects:
   787 ;;		On entry : 0/0
   788 ;;		On exit  : 0/0
   789 ;;		Unchanged: 0/0
   790 ;; Data sizes:     COMRAM   BANK0   BANK1   BANK2
   791 ;;      Params:         0       0       0       0
   792 ;;      Locals:         0       0       0       0
   793 ;;      Temps:          0       0       0       0
   794 ;;      Totals:         0       0       0       0
   795 ;;Total ram usage:        0 bytes
   796 ;; Hardware stack levels used:    1
   797 ;; Hardware stack levels required when called:   10
   798 ;; This function calls:
   799 ;;		Nothing
   800 ;; This function is called by:
   801 ;;		_main
   802 ;; This function uses a non-reentrant model
   803 ;;
   804                           
   805                           	psect	text1
   806  000E74                     __ptext1:
   807                           	opt callstack 0
   808  000E74                     _test:
   809                           	opt callstack 20
   810                           
   811                           ;main.c: 74:     PORTA=0;
   812                           
   813                           ;incstack = 0
   814  000E74  0E00               	movlw	0
   815  000E76  6E80               	movwf	3968,c	;volatile
   816                           
   817                           ;main.c: 75:     PORTB=0;
   818  000E78  0E00               	movlw	0
   819  000E7A  6E81               	movwf	3969,c	;volatile
   820                           
   821                           ;main.c: 76:     PORTD=0;
   822  000E7C  0E00               	movlw	0
   823  000E7E  6E83               	movwf	3971,c	;volatile
   824                           
   825                           ;main.c: 77:     PORTE=0;
   826  000E80  0E00               	movlw	0
   827  000E82  6E84               	movwf	3972,c	;volatile
   828                           
   829                           ;main.c: 78:     TRISB=0b00000000;
   830  000E84  0E00               	movlw	0
   831  000E86  6E93               	movwf	3987,c	;volatile
   832                           
   833                           ;main.c: 79:     TRISD=0b00000000;
   834  000E88  0E00               	movlw	0
   835  000E8A  6E95               	movwf	3989,c	;volatile
   836                           
   837                           ;main.c: 80:     LATA=0b00110111;
   838  000E8C  0E37               	movlw	55
   839  000E8E  6E89               	movwf	3977,c	;volatile
   840                           
   841                           ;main.c: 81:     LATB=0b00000000;
   842  000E90  0E00               	movlw	0
   843  000E92  6E8A               	movwf	3978,c	;volatile
   844                           
   845                           ;main.c: 82:     LATD=0b00000000;
   846  000E94  0E00               	movlw	0
   847  000E96  6E8C               	movwf	3980,c	;volatile
   848                           
   849                           ;main.c: 83:     LATE=0b00000011;
   850  000E98  0E03               	movlw	3
   851  000E9A  6E8D               	movwf	3981,c	;volatile
   852                           
   853                           ;main.c: 84:     PTCON0=0b00001100;
   854  000E9C  0E0C               	movlw	12
   855  000E9E  6E7F               	movwf	3967,c	;volatile
   856                           
   857                           ;main.c: 85:     PTCON1=0b10000000;
   858  000EA0  0E80               	movlw	128
   859  000EA2  6E7E               	movwf	3966,c	;volatile
   860                           
   861                           ;main.c: 86:     PWMCON0=0b00110111;
   862  000EA4  0E37               	movlw	55
   863  000EA6  6E6F               	movwf	3951,c	;volatile
   864                           
   865                           ;main.c: 87:     PWMCON1=0b00000000;
   866  000EA8  0E00               	movlw	0
   867  000EAA  6E6E               	movwf	3950,c	;volatile
   868                           
   869                           ;main.c: 88:     PTPERH=0x01;
   870  000EAC  0E01               	movlw	1
   871  000EAE  6E7A               	movwf	3962,c	;volatile
   872                           
   873                           ;main.c: 89:     PTPERL=0x38;
   874  000EB0  0E38               	movlw	56
   875  000EB2  6E7B               	movwf	3963,c	;volatile
   876                           
   877                           ;main.c: 90:     PDC0L=0b00110100;
   878  000EB4  0E34               	movlw	52
   879  000EB6  6E79               	movwf	3961,c	;volatile
   880                           
   881                           ;main.c: 91:     PDC0H=0b00000011;
   882  000EB8  0E03               	movlw	3
   883  000EBA  6E78               	movwf	3960,c	;volatile
   884  000EBC  0012               	return		;funcret
   885  000EBE                     __end_of_test:
   886                           	opt callstack 0
   887                           
   888 ;; *************** function _printf *****************
   889 ;; Defined at:
   890 ;;		line 5 in file "/opt/microchip/xc8/v2.05/pic/sources/c99/common/printf.c"
   891 ;; Parameters:    Size  Location     Type
   892 ;;  fmt             2  110[BANK0 ] PTR const unsigned char 
   893 ;;		 -> STR_3(10), STR_2(12), STR_1(9), 
   894 ;; Auto vars:     Size  Location     Type
   895 ;;  ap              2  116[BANK0 ] PTR void [1]
   896 ;;		 -> ?_printf(2), 
   897 ;;  ret             2    0        int 
   898 ;; Return value:  Size  Location     Type
   899 ;;                  2  110[BANK0 ] int 
   900 ;; Registers used:
   901 ;;		wreg, fsr1l, fsr1h, fsr2l, fsr2h, status,2, status,0, tblptrl, tblptrh, tblptru, cstack
   902 ;; Tracked objects:
   903 ;;		On entry : 0/0
   904 ;;		On exit  : 0/0
   905 ;;		Unchanged: 0/0
   906 ;; Data sizes:     COMRAM   BANK0   BANK1   BANK2
   907 ;;      Params:         0       4       0       0
   908 ;;      Locals:         0       4       0       0
   909 ;;      Temps:          0       0       0       0
   910 ;;      Totals:         0       8       0       0
   911 ;;Total ram usage:        8 bytes
   912 ;; Hardware stack levels used:    1
   913 ;; Hardware stack levels required when called:   17
   914 ;; This function calls:
   915 ;;		_vfprintf
   916 ;; This function is called by:
   917 ;;		_main
   918 ;;		_PWMError
   919 ;; This function uses a non-reentrant model
   920 ;;
   921                           
   922                           	psect	text2
   923  00115C                     __ptext2:
   924                           	opt callstack 0
   925  00115C                     _printf:
   926                           	opt callstack 13
   927                           
   928                           ;incstack = 0
   929  00115C  0ED0               	movlw	low (?_printf+2)
   930  00115E  0100               	movlb	0	; () banked
   931  001160  6FD4               	movwf	printf@ap& (0+255),b
   932  001162  0E00               	movlw	high (?_printf+2)
   933  001164  6FD5               	movwf	(printf@ap+1)& (0+255),b
   934                           
   935                           ; BSR set to: 0
   936  001166  0E00               	movlw	0
   937  001168  6FC6               	movwf	vfprintf@fp& (0+255),b
   938  00116A  0E00               	movlw	0
   939  00116C  6FC7               	movwf	(vfprintf@fp+1)& (0+255),b
   940  00116E  C0CE  F0C8         	movff	printf@fmt,vfprintf@fmt
   941  001172  C0CF  F0C9         	movff	printf@fmt+1,vfprintf@fmt+1
   942  001176  0ED4               	movlw	low printf@ap
   943  001178  6FCA               	movwf	vfprintf@ap& (0+255),b
   944  00117A  0E00               	movlw	high printf@ap
   945  00117C  6FCB               	movwf	(vfprintf@ap+1)& (0+255),b
   946  00117E  ECBE  F006         	call	_vfprintf	;wreg free
   947  001182  0012               	return		;funcret
   948  001184                     __end_of_printf:
   949                           	opt callstack 0
   950                           
   951 ;; *************** function _vfprintf *****************
   952 ;; Defined at:
   953 ;;		line 1368 in file "/opt/microchip/xc8/v2.05/pic/sources/c99/common/doprnt.c"
   954 ;; Parameters:    Size  Location     Type
   955 ;;  fp              2  102[BANK0 ] PTR struct _IO_FILE
   956 ;;		 -> NULL(0), 
   957 ;;  fmt             2  104[BANK0 ] PTR const unsigned char 
   958 ;;		 -> STR_3(10), STR_2(12), STR_1(9), 
   959 ;;  ap              2  106[BANK0 ] PTR PTR void 
   960 ;;		 -> printf@ap(2), 
   961 ;; Auto vars:     Size  Location     Type
   962 ;;  cfmt            2  108[BANK0 ] PTR unsigned char 
   963 ;;		 -> STR_3(10), STR_2(12), STR_1(9), 
   964 ;; Return value:  Size  Location     Type
   965 ;;                  2  102[BANK0 ] int 
   966 ;; Registers used:
   967 ;;		wreg, fsr1l, fsr1h, fsr2l, fsr2h, status,2, status,0, tblptrl, tblptrh, tblptru, cstack
   968 ;; Tracked objects:
   969 ;;		On entry : 0/0
   970 ;;		On exit  : 0/0
   971 ;;		Unchanged: 0/0
   972 ;; Data sizes:     COMRAM   BANK0   BANK1   BANK2
   973 ;;      Params:         0       6       0       0
   974 ;;      Locals:         0       2       0       0
   975 ;;      Temps:          0       0       0       0
   976 ;;      Totals:         0       8       0       0
   977 ;;Total ram usage:        8 bytes
   978 ;; Hardware stack levels used:    1
   979 ;; Hardware stack levels required when called:   16
   980 ;; This function calls:
   981 ;;		_vfpfcnvrt
   982 ;; This function is called by:
   983 ;;		_printf
   984 ;; This function uses a non-reentrant model
   985 ;;
   986                           
   987                           	psect	text3
   988  000D7C                     __ptext3:
   989                           	opt callstack 0
   990  000D7C                     _vfprintf:
   991                           	opt callstack 13
   992                           
   993                           ;/opt/microchip/xc8/v2.05/pic/sources/c99/common/doprnt.c: 1368: int vfprintf(FILE *fp, 
      +                          const char *fmt, va_list ap);/opt/microchip/xc8/v2.05/pic/sources/c99/common/doprnt.c: 1
      +                          369: {;/opt/microchip/xc8/v2.05/pic/sources/c99/common/doprnt.c: 1371:     char *cfmt;;/
      +                          opt/microchip/xc8/v2.05/pic/sources/c99/common/doprnt.c: 1373:     cfmt = (char *)fmt;
   994                           
   995                           ;incstack = 0
   996  000D7C  C0C8  F0CC         	movff	vfprintf@fmt,vfprintf@cfmt
   997  000D80  C0C9  F0CD         	movff	vfprintf@fmt+1,vfprintf@cfmt+1
   998                           
   999                           ;/opt/microchip/xc8/v2.05/pic/sources/c99/common/doprnt.c: 1374:     nout = 0;
  1000  000D84  0E00               	movlw	0
  1001  000D86  0100               	movlb	0	; () banked
  1002  000D88  6FD7               	movwf	(_nout+1)& (0+255),b
  1003  000D8A  0E00               	movlw	0
  1004  000D8C  6FD6               	movwf	_nout& (0+255),b
  1005                           
  1006                           ;/opt/microchip/xc8/v2.05/pic/sources/c99/common/doprnt.c: 1375:     while (*cfmt) {
  1007  000D8E  D013               	goto	l1971
  1008  000D90                     l1969:
  1009                           
  1010                           ; BSR set to: 0
  1011                           ;/opt/microchip/xc8/v2.05/pic/sources/c99/common/doprnt.c: 1376:         nout += vfpfcnv
      +                          rt(fp, &cfmt, ap);
  1012  000D90  C0C6  F0B3         	movff	vfprintf@fp,vfpfcnvrt@fp
  1013  000D94  C0C7  F0B4         	movff	vfprintf@fp+1,vfpfcnvrt@fp+1
  1014  000D98  0ECC               	movlw	low vfprintf@cfmt
  1015  000D9A  6FB5               	movwf	vfpfcnvrt@fmt& (0+255),b
  1016  000D9C  0E00               	movlw	high vfprintf@cfmt
  1017  000D9E  6FB6               	movwf	(vfpfcnvrt@fmt+1)& (0+255),b
  1018  000DA0  C0CA  F0B7         	movff	vfprintf@ap,vfpfcnvrt@ap
  1019  000DA4  C0CB  F0B8         	movff	vfprintf@ap+1,vfpfcnvrt@ap+1
  1020  000DA8  ECC3  F003         	call	_vfpfcnvrt	;wreg free
  1021  000DAC  0100               	movlb	0	; () banked
  1022  000DAE  51B3               	movf	?_vfpfcnvrt& (0+255),w,b
  1023  000DB0  27D6               	addwf	_nout& (0+255),f,b
  1024  000DB2  51B4               	movf	(?_vfpfcnvrt+1)& (0+255),w,b
  1025  000DB4  23D7               	addwfc	(_nout+1)& (0+255),f,b
  1026  000DB6                     l1971:
  1027                           
  1028                           ; BSR set to: 0
  1029                           ;/opt/microchip/xc8/v2.05/pic/sources/c99/common/doprnt.c: 1375:     while (*cfmt) {
  1030  000DB6  C0CC  FFF6         	movff	vfprintf@cfmt,tblptrl
  1031  000DBA  C0CD  FFF7         	movff	vfprintf@cfmt+1,tblptrh
  1032  000DBE                     	if	0	;tblptru may be non-zero
  1033  000DBE                     	endif
  1034  000DBE                     	if	0	;tblptru may be non-zero
  1035  000DBE                     	endif
  1036  000DBE  0008               	tblrd		*
  1037  000DC0  50F5               	movf	tablat,w,c
  1038  000DC2  0900               	iorlw	0
  1039  000DC4  A4D8               	btfss	status,2,c
  1040  000DC6  D7E4               	goto	l1969
  1041                           
  1042                           ; BSR set to: 0
  1043                           ;/opt/microchip/xc8/v2.05/pic/sources/c99/common/doprnt.c: 1378:     return nout;
  1044  000DC8  C0D6  F0C6         	movff	_nout,?_vfprintf
  1045  000DCC  C0D7  F0C7         	movff	_nout+1,?_vfprintf+1
  1046                           
  1047                           ; BSR set to: 0
  1048  000DD0  0012               	return		;funcret
  1049  000DD2                     __end_of_vfprintf:
  1050                           	opt callstack 0
  1051                           
  1052 ;; *************** function _vfpfcnvrt *****************
  1053 ;; Defined at:
  1054 ;;		line 670 in file "/opt/microchip/xc8/v2.05/pic/sources/c99/common/doprnt.c"
  1055 ;; Parameters:    Size  Location     Type
  1056 ;;  fp              2   83[BANK0 ] PTR struct _IO_FILE
  1057 ;;		 -> NULL(0), 
  1058 ;;  fmt             2   85[BANK0 ] PTR PTR unsigned char 
  1059 ;;		 -> vfprintf@cfmt(2), 
  1060 ;;  ap              2   87[BANK0 ] PTR PTR void 
  1061 ;;		 -> printf@ap(2), 
  1062 ;; Auto vars:     Size  Location     Type
  1063 ;;  llu             8   93[BANK0 ] unsigned long long 
  1064 ;;  ll              8    0        long long 
  1065 ;;  f               4    0        long long 
  1066 ;;  vp              3    0        PTR void 
  1067 ;;  ct              3    0        unsigned char [3]
  1068 ;;  cp              3    0        PTR unsigned char 
  1069 ;;  i               2    0        int 
  1070 ;;  done            2    0        int 
  1071 ;;  c               1  101[BANK0 ] unsigned char 
  1072 ;; Return value:  Size  Location     Type
  1073 ;;                  2   83[BANK0 ] int 
  1074 ;; Registers used:
  1075 ;;		wreg, fsr1l, fsr1h, fsr2l, fsr2h, status,2, status,0, tblptrl, tblptrh, tblptru, cstack
  1076 ;; Tracked objects:
  1077 ;;		On entry : 0/0
  1078 ;;		On exit  : 0/0
  1079 ;;		Unchanged: 0/0
  1080 ;; Data sizes:     COMRAM   BANK0   BANK1   BANK2
  1081 ;;      Params:         0       6       0       0
  1082 ;;      Locals:         0       9       0       0
  1083 ;;      Temps:          0       4       0       0
  1084 ;;      Totals:         0      19       0       0
  1085 ;;Total ram usage:       19 bytes
  1086 ;; Hardware stack levels used:    1
  1087 ;; Hardware stack levels required when called:   15
  1088 ;; This function calls:
  1089 ;;		_fputc
  1090 ;;		_xtoa
  1091 ;; This function is called by:
  1092 ;;		_vfprintf
  1093 ;; This function uses a non-reentrant model
  1094 ;;
  1095                           
  1096                           	psect	text4
  1097  000786                     __ptext4:
  1098                           	opt callstack 0
  1099  000786                     _vfpfcnvrt:
  1100                           	opt callstack 13
  1101                           
  1102                           ;/opt/microchip/xc8/v2.05/pic/sources/c99/common/doprnt.c: 670: static int vfpfcnvrt(FIL
      +                          E *fp, char *fmt[], va_list ap);/opt/microchip/xc8/v2.05/pic/sources/c99/common/doprnt.c
      +                          : 671: {;/opt/microchip/xc8/v2.05/pic/sources/c99/common/doprnt.c: 672:     char c, *cp,
      +                           ct[3];;/opt/microchip/xc8/v2.05/pic/sources/c99/common/doprnt.c: 673:     int done, i;;
      +                          /opt/microchip/xc8/v2.05/pic/sources/c99/common/doprnt.c: 674:     long long ll;;/opt/mi
      +                          crochip/xc8/v2.05/pic/sources/c99/common/doprnt.c: 675:     unsigned long long llu;
  1103                           
  1104                           ; BSR set to: 0
  1105                           ;incstack = 0
  1106  000786  C0B5  FFD9         	movff	vfpfcnvrt@fmt,fsr2l
  1107  00078A  C0B6  FFDA         	movff	vfpfcnvrt@fmt+1,fsr2h
  1108  00078E  CFDE FFF6          	movff	postinc2,tblptrl
  1109  000792  CFDD FFF7          	movff	postdec2,tblptrh
  1110  000796                     	if	0	;tblptru may be non-zero
  1111  000796                     	endif
  1112  000796                     	if	0	;tblptru may be non-zero
  1113  000796                     	endif
  1114  000796  0008               	tblrd		*
  1115  000798  50F5               	movf	tablat,w,c
  1116  00079A  0A25               	xorlw	37
  1117  00079C  A4D8               	btfss	status,2,c
  1118  00079E  D0A9               	goto	l1891
  1119                           
  1120                           ;/opt/microchip/xc8/v2.05/pic/sources/c99/common/doprnt.c: 681:         ++*fmt;
  1121  0007A0  C0B5  FFD9         	movff	vfpfcnvrt@fmt,fsr2l
  1122  0007A4  C0B6  FFDA         	movff	vfpfcnvrt@fmt+1,fsr2h
  1123  0007A8  2ADE               	incf	postinc2,f,c
  1124  0007AA  0E00               	movlw	0
  1125  0007AC  22DD               	addwfc	postdec2,f,c
  1126                           
  1127                           ;/opt/microchip/xc8/v2.05/pic/sources/c99/common/doprnt.c: 683:         flags = width = 
      +                          0;
  1128  0007AE  0E00               	movlw	0
  1129  0007B0  0100               	movlb	0	; () banked
  1130  0007B2  6FD9               	movwf	(_width+1)& (0+255),b
  1131  0007B4  0E00               	movlw	0
  1132  0007B6  6FD8               	movwf	_width& (0+255),b
  1133  0007B8  C0D8  F0DC         	movff	_width,_flags
  1134  0007BC  C0D9  F0DD         	movff	_width+1,_flags+1
  1135                           
  1136                           ; BSR set to: 0
  1137                           ;/opt/microchip/xc8/v2.05/pic/sources/c99/common/doprnt.c: 684:         prec = -1;
  1138  0007C0  69DA               	setf	_prec& (0+255),b
  1139  0007C2  69DB               	setf	(_prec+1)& (0+255),b
  1140                           
  1141                           ; BSR set to: 0
  1142                           ;/opt/microchip/xc8/v2.05/pic/sources/c99/common/doprnt.c: 1274:         if ((*fmt[0] ==
      +                           'x') || (*fmt[0] == 'X')) {
  1143  0007C4  C0B5  FFD9         	movff	vfpfcnvrt@fmt,fsr2l
  1144  0007C8  C0B6  FFDA         	movff	vfpfcnvrt@fmt+1,fsr2h
  1145  0007CC  CFDE FFF6          	movff	postinc2,tblptrl
  1146  0007D0  CFDD FFF7          	movff	postdec2,tblptrh
  1147  0007D4                     	if	0	;tblptru may be non-zero
  1148  0007D4                     	endif
  1149  0007D4                     	if	0	;tblptru may be non-zero
  1150  0007D4                     	endif
  1151  0007D4  0008               	tblrd		*
  1152  0007D6  50F5               	movf	tablat,w,c
  1153  0007D8  0A78               	xorlw	120
  1154  0007DA  B4D8               	btfsc	status,2,c
  1155  0007DC  D00D               	goto	u1710
  1156                           
  1157                           ; BSR set to: 0
  1158  0007DE  C0B5  FFD9         	movff	vfpfcnvrt@fmt,fsr2l
  1159  0007E2  C0B6  FFDA         	movff	vfpfcnvrt@fmt+1,fsr2h
  1160  0007E6  CFDE FFF6          	movff	postinc2,tblptrl
  1161  0007EA  CFDD FFF7          	movff	postdec2,tblptrh
  1162  0007EE                     	if	0	;tblptru may be non-zero
  1163  0007EE                     	endif
  1164  0007EE                     	if	0	;tblptru may be non-zero
  1165  0007EE                     	endif
  1166  0007EE  0008               	tblrd		*
  1167  0007F0  50F5               	movf	tablat,w,c
  1168  0007F2  0A58               	xorlw	88
  1169  0007F4  A4D8               	btfss	status,2,c
  1170  0007F6  D04D               	goto	l1875
  1171  0007F8                     u1710:
  1172                           
  1173                           ; BSR set to: 0
  1174                           ;/opt/microchip/xc8/v2.05/pic/sources/c99/common/doprnt.c: 1276:             c = (*fmt)[
      +                          0];
  1175  0007F8  C0B5  FFD9         	movff	vfpfcnvrt@fmt,fsr2l
  1176  0007FC  C0B6  FFDA         	movff	vfpfcnvrt@fmt+1,fsr2h
  1177  000800  CFDE FFF6          	movff	postinc2,tblptrl
  1178  000804  CFDD FFF7          	movff	postdec2,tblptrh
  1179  000808                     	if	0	;tblptru may be non-zero
  1180  000808                     	endif
  1181  000808                     	if	0	;tblptru may be non-zero
  1182  000808                     	endif
  1183  000808  0008               	tblrd		*
  1184  00080A  CFF5 F0C5          	movff	tablat,vfpfcnvrt@c
  1185                           
  1186                           ; BSR set to: 0
  1187                           ;/opt/microchip/xc8/v2.05/pic/sources/c99/common/doprnt.c: 1277:             ++*fmt;
  1188  00080E  C0B5  FFD9         	movff	vfpfcnvrt@fmt,fsr2l
  1189  000812  C0B6  FFDA         	movff	vfpfcnvrt@fmt+1,fsr2h
  1190  000816  2ADE               	incf	postinc2,f,c
  1191  000818  0E00               	movlw	0
  1192  00081A  22DD               	addwfc	postdec2,f,c
  1193                           
  1194                           ; BSR set to: 0
  1195                           ;/opt/microchip/xc8/v2.05/pic/sources/c99/common/doprnt.c: 1278:             llu = (unsi
      +                          gned long long)(*(unsigned int *)__va_arg(*(unsigned int **)ap, (unsigned int)0));
  1196  00081C  C0B7  FFD9         	movff	vfpfcnvrt@ap,fsr2l
  1197  000820  C0B8  FFDA         	movff	vfpfcnvrt@ap+1,fsr2h
  1198  000824  CFDF F0B9          	movff	indf2,??_vfpfcnvrt
  1199  000828  0E02               	movlw	2
  1200  00082A  26DE               	addwf	postinc2,f,c
  1201  00082C  CFDF F0BA          	movff	indf2,??_vfpfcnvrt+1
  1202  000830  0E00               	movlw	0
  1203  000832  22DD               	addwfc	postdec2,f,c
  1204  000834  C0B9  FFD9         	movff	??_vfpfcnvrt,fsr2l
  1205  000838  C0BA  FFDA         	movff	??_vfpfcnvrt+1,fsr2h
  1206  00083C  CFDE F0BB          	movff	postinc2,??_vfpfcnvrt+2
  1207  000840  CFDD F0BC          	movff	postdec2,??_vfpfcnvrt+3
  1208  000844  C0BB  F0BD         	movff	??_vfpfcnvrt+2,vfpfcnvrt@llu
  1209  000848  C0BC  F0BE         	movff	??_vfpfcnvrt+3,vfpfcnvrt@llu+1
  1210  00084C  6BBF               	clrf	(vfpfcnvrt@llu+2)& (0+255),b
  1211  00084E  6BC0               	clrf	(vfpfcnvrt@llu+3)& (0+255),b
  1212  000850  6BC1               	clrf	(vfpfcnvrt@llu+4)& (0+255),b
  1213  000852  6BC2               	clrf	(vfpfcnvrt@llu+5)& (0+255),b
  1214  000854  6BC3               	clrf	(vfpfcnvrt@llu+6)& (0+255),b
  1215  000856  6BC4               	clrf	(vfpfcnvrt@llu+7)& (0+255),b
  1216                           
  1217                           ; BSR set to: 0
  1218                           ;/opt/microchip/xc8/v2.05/pic/sources/c99/common/doprnt.c: 1280:             return xtoa
      +                          (fp, llu, c);
  1219  000858  C0B3  F08C         	movff	vfpfcnvrt@fp,xtoa@fp
  1220  00085C  C0B4  F08D         	movff	vfpfcnvrt@fp+1,xtoa@fp+1
  1221  000860  C0BD  F08E         	movff	vfpfcnvrt@llu,xtoa@d
  1222  000864  C0BE  F08F         	movff	vfpfcnvrt@llu+1,xtoa@d+1
  1223  000868  C0BF  F090         	movff	vfpfcnvrt@llu+2,xtoa@d+2
  1224  00086C  C0C0  F091         	movff	vfpfcnvrt@llu+3,xtoa@d+3
  1225  000870  C0C1  F092         	movff	vfpfcnvrt@llu+4,xtoa@d+4
  1226  000874  C0C2  F093         	movff	vfpfcnvrt@llu+5,xtoa@d+5
  1227  000878  C0C3  F094         	movff	vfpfcnvrt@llu+6,xtoa@d+6
  1228  00087C  C0C4  F095         	movff	vfpfcnvrt@llu+7,xtoa@d+7
  1229  000880  C0C5  F096         	movff	vfpfcnvrt@c,xtoa@x
  1230  000884  EC91  F001         	call	_xtoa	;wreg free
  1231  000888  C08C  F0B3         	movff	?_xtoa,?_vfpfcnvrt
  1232  00088C  C08D  F0B4         	movff	?_xtoa+1,?_vfpfcnvrt+1
  1233  000890  0012               	return	
  1234  000892                     l1875:
  1235                           
  1236                           ; BSR set to: 0
  1237                           ;/opt/microchip/xc8/v2.05/pic/sources/c99/common/doprnt.c: 1350:         if ((*fmt)[0] =
      +                          = '%') {
  1238  000892  C0B5  FFD9         	movff	vfpfcnvrt@fmt,fsr2l
  1239  000896  C0B6  FFDA         	movff	vfpfcnvrt@fmt+1,fsr2h
  1240  00089A  CFDE FFF6          	movff	postinc2,tblptrl
  1241  00089E  CFDD FFF7          	movff	postdec2,tblptrh
  1242  0008A2                     	if	0	;tblptru may be non-zero
  1243  0008A2                     	endif
  1244  0008A2                     	if	0	;tblptru may be non-zero
  1245  0008A2                     	endif
  1246  0008A2  0008               	tblrd		*
  1247  0008A4  50F5               	movf	tablat,w,c
  1248  0008A6  0A25               	xorlw	37
  1249  0008A8  A4D8               	btfss	status,2,c
  1250  0008AA  D017               	goto	l1885
  1251                           
  1252                           ; BSR set to: 0
  1253                           ;/opt/microchip/xc8/v2.05/pic/sources/c99/common/doprnt.c: 1351:             ++*fmt;
  1254  0008AC  C0B5  FFD9         	movff	vfpfcnvrt@fmt,fsr2l
  1255  0008B0  C0B6  FFDA         	movff	vfpfcnvrt@fmt+1,fsr2h
  1256  0008B4  2ADE               	incf	postinc2,f,c
  1257  0008B6  0E00               	movlw	0
  1258  0008B8  22DD               	addwfc	postdec2,f,c
  1259                           
  1260                           ; BSR set to: 0
  1261                           ;/opt/microchip/xc8/v2.05/pic/sources/c99/common/doprnt.c: 1352:             fputc((int)
      +                          '%', fp);
  1262  0008BA  0E00               	movlw	0
  1263  0008BC  6F72               	movwf	(fputc@c+1)& (0+255),b
  1264  0008BE  0E25               	movlw	37
  1265  0008C0  6F71               	movwf	fputc@c& (0+255),b
  1266  0008C2  C0B3  F073         	movff	vfpfcnvrt@fp,fputc@fp
  1267  0008C6  C0B4  F074         	movff	vfpfcnvrt@fp+1,fputc@fp+1
  1268  0008CA  EC51  F006         	call	_fputc	;wreg free
  1269  0008CE                     l1881:
  1270                           
  1271                           ;/opt/microchip/xc8/v2.05/pic/sources/c99/common/doprnt.c: 1353:             return 1;
  1272  0008CE  0E00               	movlw	0
  1273  0008D0  0100               	movlb	0	; () banked
  1274  0008D2  6FB4               	movwf	(?_vfpfcnvrt+1)& (0+255),b
  1275  0008D4  0E01               	movlw	1
  1276  0008D6  6FB3               	movwf	?_vfpfcnvrt& (0+255),b
  1277  0008D8  0012               	return	
  1278  0008DA                     l1885:
  1279                           
  1280                           ; BSR set to: 0
  1281                           ;/opt/microchip/xc8/v2.05/pic/sources/c99/common/doprnt.c: 1357:         ++*fmt;
  1282  0008DA  C0B5  FFD9         	movff	vfpfcnvrt@fmt,fsr2l
  1283  0008DE  C0B6  FFDA         	movff	vfpfcnvrt@fmt+1,fsr2h
  1284  0008E2  2ADE               	incf	postinc2,f,c
  1285  0008E4  0E00               	movlw	0
  1286  0008E6  22DD               	addwfc	postdec2,f,c
  1287                           
  1288                           ; BSR set to: 0
  1289                           ;/opt/microchip/xc8/v2.05/pic/sources/c99/common/doprnt.c: 1358:         return 0;
  1290  0008E8  0E00               	movlw	0
  1291  0008EA  6FB4               	movwf	(?_vfpfcnvrt+1)& (0+255),b
  1292  0008EC  0E00               	movlw	0
  1293  0008EE  6FB3               	movwf	?_vfpfcnvrt& (0+255),b
  1294  0008F0  0012               	return	
  1295  0008F2                     l1891:
  1296                           
  1297                           ;/opt/microchip/xc8/v2.05/pic/sources/c99/common/doprnt.c: 1362:     fputc((int)(*fmt)[0
      +                          ], fp);
  1298  0008F2  C0B5  FFD9         	movff	vfpfcnvrt@fmt,fsr2l
  1299  0008F6  C0B6  FFDA         	movff	vfpfcnvrt@fmt+1,fsr2h
  1300  0008FA  CFDE FFF6          	movff	postinc2,tblptrl
  1301  0008FE  CFDD FFF7          	movff	postdec2,tblptrh
  1302  000902                     	if	0	;tblptru may be non-zero
  1303  000902                     	endif
  1304  000902                     	if	0	;tblptru may be non-zero
  1305  000902                     	endif
  1306  000902  0008               	tblrd		*
  1307  000904  50F5               	movf	tablat,w,c
  1308  000906  0100               	movlb	0	; () banked
  1309  000908  6F71               	movwf	fputc@c& (0+255),b
  1310  00090A  6B72               	clrf	(fputc@c+1)& (0+255),b
  1311  00090C  C0B3  F073         	movff	vfpfcnvrt@fp,fputc@fp
  1312  000910  C0B4  F074         	movff	vfpfcnvrt@fp+1,fputc@fp+1
  1313  000914  EC51  F006         	call	_fputc	;wreg free
  1314                           
  1315                           ;/opt/microchip/xc8/v2.05/pic/sources/c99/common/doprnt.c: 1363:     ++*fmt;
  1316  000918  C0B5  FFD9         	movff	vfpfcnvrt@fmt,fsr2l
  1317  00091C  C0B6  FFDA         	movff	vfpfcnvrt@fmt+1,fsr2h
  1318  000920  2ADE               	incf	postinc2,f,c
  1319  000922  0E00               	movlw	0
  1320  000924  22DD               	addwfc	postdec2,f,c
  1321  000926  D7D3               	goto	l1881
  1322  000928                     __end_of_vfpfcnvrt:
  1323                           	opt callstack 0
  1324                           
  1325 ;; *************** function _xtoa *****************
  1326 ;; Defined at:
  1327 ;;		line 623 in file "/opt/microchip/xc8/v2.05/pic/sources/c99/common/doprnt.c"
  1328 ;; Parameters:    Size  Location     Type
  1329 ;;  fp              2   44[BANK0 ] PTR struct _IO_FILE
  1330 ;;		 -> NULL(0), 
  1331 ;;  d               8   46[BANK0 ] unsigned long long 
  1332 ;;  x               1   54[BANK0 ] unsigned char 
  1333 ;; Auto vars:     Size  Location     Type
  1334 ;;  n               8   71[BANK0 ] unsigned long long 
  1335 ;;  c               2   81[BANK0 ] int 
  1336 ;;  i               2   79[BANK0 ] int 
  1337 ;;  w               2   69[BANK0 ] int 
  1338 ;;  p               2   67[BANK0 ] int 
  1339 ;; Return value:  Size  Location     Type
  1340 ;;                  2   44[BANK0 ] int 
  1341 ;; Registers used:
  1342 ;;		wreg, fsr1l, fsr1h, fsr2l, fsr2h, status,2, status,0, cstack
  1343 ;; Tracked objects:
  1344 ;;		On entry : 0/0
  1345 ;;		On exit  : 0/0
  1346 ;;		Unchanged: 0/0
  1347 ;; Data sizes:     COMRAM   BANK0   BANK1   BANK2
  1348 ;;      Params:         0      11       0       0
  1349 ;;      Locals:         0      20       0       0
  1350 ;;      Temps:          0       8       0       0
  1351 ;;      Totals:         0      39       0       0
  1352 ;;Total ram usage:       39 bytes
  1353 ;; Hardware stack levels used:    1
  1354 ;; Hardware stack levels required when called:   14
  1355 ;; This function calls:
  1356 ;;		_isalpha
  1357 ;;		_isupper
  1358 ;;		_pad
  1359 ;;		_toupper
  1360 ;; This function is called by:
  1361 ;;		_vfpfcnvrt
  1362 ;; This function uses a non-reentrant model
  1363 ;;
  1364                           
  1365                           	psect	text5
  1366  000322                     __ptext5:
  1367                           	opt callstack 0
  1368  000322                     _xtoa:
  1369                           	opt callstack 13
  1370                           
  1371                           ;/opt/microchip/xc8/v2.05/pic/sources/c99/common/doprnt.c: 623: static int xtoa(FILE *fp
      +                          , unsigned long long d, char x);/opt/microchip/xc8/v2.05/pic/sources/c99/common/doprnt.c
      +                          : 624: {;/opt/microchip/xc8/v2.05/pic/sources/c99/common/doprnt.c: 625:     int c, i, p,
      +                           w;;/opt/microchip/xc8/v2.05/pic/sources/c99/common/doprnt.c: 626:     unsigned long lon
      +                          g n;;/opt/microchip/xc8/v2.05/pic/sources/c99/common/doprnt.c: 629:     if (!(prec < 0))
      +                           {
  1372                           
  1373                           ;incstack = 0
  1374  000322  0100               	movlb	0	; () banked
  1375  000324  AFDB               	btfss	(_prec+1)& (0+255),7,b
  1376                           
  1377                           ; BSR set to: 0
  1378                           ;/opt/microchip/xc8/v2.05/pic/sources/c99/common/doprnt.c: 630:         flags &= ~(1 << 
      +                          1);
  1379  000326  93DC               	bcf	_flags& (0+255),1,b
  1380                           
  1381                           ; BSR set to: 0
  1382                           ;/opt/microchip/xc8/v2.05/pic/sources/c99/common/doprnt.c: 632:     p = (0 < prec) ? pre
      +                          c : 1;
  1383  000328  BFDB               	btfsc	(_prec+1)& (0+255),7,b
  1384  00032A  D005               	goto	u1360
  1385  00032C  51DB               	movf	(_prec+1)& (0+255),w,b
  1386  00032E  E108               	bnz	l228
  1387  000330  05DA               	decf	_prec& (0+255),w,b
  1388  000332  B0D8               	btfsc	status,0,c
  1389  000334  D005               	goto	l228
  1390  000336                     u1360:
  1391                           
  1392                           ; BSR set to: 0
  1393  000336  0E00               	movlw	0
  1394  000338  6FA4               	movwf	(xtoa@p+1)& (0+255),b
  1395  00033A  0E01               	movlw	1
  1396  00033C  6FA3               	movwf	xtoa@p& (0+255),b
  1397  00033E  D004               	goto	l230
  1398  000340                     l228:
  1399                           
  1400                           ; BSR set to: 0
  1401  000340  C0DA  F0A3         	movff	_prec,xtoa@p
  1402  000344  C0DB  F0A4         	movff	_prec+1,xtoa@p+1
  1403  000348                     l230:
  1404                           
  1405                           ; BSR set to: 0
  1406                           ;/opt/microchip/xc8/v2.05/pic/sources/c99/common/doprnt.c: 633:     w = width;
  1407  000348  C0D8  F0A5         	movff	_width,xtoa@w
  1408  00034C  C0D9  F0A6         	movff	_width+1,xtoa@w+1
  1409                           
  1410                           ;/opt/microchip/xc8/v2.05/pic/sources/c99/common/doprnt.c: 634:     if (flags & (1 << 4)
      +                          ) {
  1411  000350  A9DC               	btfss	_flags& (0+255),4,b
  1412  000352  D004               	goto	l1731
  1413                           
  1414                           ; BSR set to: 0
  1415                           ;/opt/microchip/xc8/v2.05/pic/sources/c99/common/doprnt.c: 635:         w -= 2;
  1416  000354  0EFE               	movlw	254
  1417  000356  27A5               	addwf	xtoa@w& (0+255),f,b
  1418  000358  0EFF               	movlw	255
  1419  00035A  23A6               	addwfc	(xtoa@w+1)& (0+255),f,b
  1420  00035C                     l1731:
  1421                           
  1422                           ; BSR set to: 0
  1423                           ;/opt/microchip/xc8/v2.05/pic/sources/c99/common/doprnt.c: 639:     n = d;
  1424  00035C  C08E  F0A7         	movff	xtoa@d,xtoa@n
  1425  000360  C08F  F0A8         	movff	xtoa@d+1,xtoa@n+1
  1426  000364  C090  F0A9         	movff	xtoa@d+2,xtoa@n+2
  1427  000368  C091  F0AA         	movff	xtoa@d+3,xtoa@n+3
  1428  00036C  C092  F0AB         	movff	xtoa@d+4,xtoa@n+4
  1429  000370  C093  F0AC         	movff	xtoa@d+5,xtoa@n+5
  1430  000374  C094  F0AD         	movff	xtoa@d+6,xtoa@n+6
  1431  000378  C095  F0AE         	movff	xtoa@d+7,xtoa@n+7
  1432                           
  1433                           ; BSR set to: 0
  1434                           ;/opt/microchip/xc8/v2.05/pic/sources/c99/common/doprnt.c: 640:     i = sizeof(dbuf) - 1
      +                          ;
  1435  00037C  0E00               	movlw	0
  1436  00037E  6FB0               	movwf	(xtoa@i+1)& (0+255),b
  1437  000380  0E1F               	movlw	31
  1438  000382  6FAF               	movwf	xtoa@i& (0+255),b
  1439                           
  1440                           ; BSR set to: 0
  1441                           ;/opt/microchip/xc8/v2.05/pic/sources/c99/common/doprnt.c: 641:     dbuf[i] = '\0';
  1442  000384  0E00               	movlw	0
  1443  000386  0101               	movlb	1	; () banked
  1444  000388  6F1F               	movwf	(_dbuf+31)& (0+255),b
  1445                           
  1446                           ;/opt/microchip/xc8/v2.05/pic/sources/c99/common/doprnt.c: 642:     while (!(i < 2) && (
      +                          n || (0 < p) || ((0 < w) && (flags & (1 << 1))))) {
  1447  00038A  D094               	goto	l1767
  1448  00038C                     l1737:
  1449                           
  1450                           ; BSR set to: 0
  1451                           ;/opt/microchip/xc8/v2.05/pic/sources/c99/common/doprnt.c: 643:         --i;
  1452  00038C  07AF               	decf	xtoa@i& (0+255),f,b
  1453  00038E  A0D8               	btfss	status,0,c
  1454  000390  07B0               	decf	(xtoa@i+1)& (0+255),f,b
  1455                           
  1456                           ; BSR set to: 0
  1457                           ;/opt/microchip/xc8/v2.05/pic/sources/c99/common/doprnt.c: 644:         c = n & 0x0f;
  1458  000392  0E0F               	movlw	15
  1459  000394  15A7               	andwf	xtoa@n& (0+255),w,b
  1460  000396  6FB1               	movwf	xtoa@c& (0+255),b
  1461  000398  6BB2               	clrf	(xtoa@c+1)& (0+255),b
  1462                           
  1463                           ; BSR set to: 0
  1464                           ;/opt/microchip/xc8/v2.05/pic/sources/c99/common/doprnt.c: 645:         c = (c < 10) ? '
      +                          0' + c : 'a' + (c - 10);
  1465  00039A  BFB2               	btfsc	(xtoa@c+1)& (0+255),7,b
  1466  00039C  D008               	goto	l1745
  1467  00039E  51B2               	movf	(xtoa@c+1)& (0+255),w,b
  1468  0003A0  E104               	bnz	u1380
  1469  0003A2  0E0A               	movlw	10
  1470  0003A4  5DB1               	subwf	xtoa@c& (0+255),w,b
  1471  0003A6  A0D8               	btfss	status,0,c
  1472  0003A8  D002               	goto	l1745
  1473  0003AA                     u1380:
  1474                           
  1475                           ; BSR set to: 0
  1476  0003AA  0E57               	movlw	87
  1477  0003AC  D001               	goto	L1
  1478  0003AE                     l1745:
  1479                           
  1480                           ; BSR set to: 0
  1481  0003AE  0E30               	movlw	48
  1482  0003B0                     L1:
  1483  0003B0  25B1               	addwf	xtoa@c& (0+255),w,b
  1484  0003B2  6FB1               	movwf	xtoa@c& (0+255),b
  1485  0003B4  0E00               	movlw	0
  1486  0003B6  21B2               	addwfc	(xtoa@c+1)& (0+255),w,b
  1487  0003B8  6FB2               	movwf	(xtoa@c+1)& (0+255),b
  1488                           
  1489                           ; BSR set to: 0
  1490                           
  1491                           ;/opt/microchip/xc8/v2.05/pic/sources/c99/common/doprnt.c: 646:         if ((0 ? isupper
      +                          ((int)x) : ((unsigned)((int)x)-'A') < 26) && (0 ? isalpha(c) : (((unsigned)(c)|32)-'a') 
      +                          < 26)) {
  1492  0003BA  0EBF               	movlw	191
  1493  0003BC  6F97               	movwf	??_xtoa& (0+255),b
  1494  0003BE  0EFF               	movlw	255
  1495  0003C0  6F98               	movwf	(??_xtoa+1)& (0+255),b
  1496  0003C2  5196               	movf	xtoa@x& (0+255),w,b
  1497  0003C4  6F99               	movwf	(??_xtoa+2)& (0+255),b
  1498  0003C6  6B9A               	clrf	(??_xtoa+3)& (0+255),b
  1499  0003C8  5197               	movf	??_xtoa& (0+255),w,b
  1500  0003CA  2799               	addwf	(??_xtoa+2)& (0+255),f,b
  1501  0003CC  5198               	movf	(??_xtoa+1)& (0+255),w,b
  1502  0003CE  239A               	addwfc	(??_xtoa+3)& (0+255),f,b
  1503  0003D0  519A               	movf	(??_xtoa+3)& (0+255),w,b
  1504  0003D2  E106               	bnz	u1390
  1505  0003D4  0E1A               	movlw	26
  1506  0003D6  5D99               	subwf	(??_xtoa+2)& (0+255),w,b
  1507  0003D8  B0D8               	btfsc	status,0,c
  1508  0003DA  D002               	goto	u1390
  1509  0003DC  0E01               	movlw	1
  1510  0003DE  D001               	goto	u1400
  1511  0003E0                     u1390:
  1512  0003E0  0E00               	movlw	0
  1513  0003E2                     u1400:
  1514  0003E2  6F9F               	movwf	_xtoa$805& (0+255),b
  1515  0003E4  6BA0               	clrf	(_xtoa$805+1)& (0+255),b
  1516                           
  1517                           ; BSR set to: 0
  1518  0003E6  519F               	movf	_xtoa$805& (0+255),w,b
  1519  0003E8  11A0               	iorwf	(_xtoa$805+1)& (0+255),w,b
  1520  0003EA  B4D8               	btfsc	status,2,c
  1521  0003EC  D027               	goto	l1759
  1522                           
  1523                           ; BSR set to: 0
  1524  0003EE  0E9F               	movlw	159
  1525  0003F0  6F97               	movwf	??_xtoa& (0+255),b
  1526  0003F2  0EFF               	movlw	255
  1527  0003F4  6F98               	movwf	(??_xtoa+1)& (0+255),b
  1528  0003F6  0E20               	movlw	32
  1529  0003F8  11B1               	iorwf	xtoa@c& (0+255),w,b
  1530  0003FA  6F99               	movwf	(??_xtoa+2)& (0+255),b
  1531  0003FC  0E00               	movlw	0
  1532  0003FE  11B2               	iorwf	(xtoa@c+1)& (0+255),w,b
  1533  000400  6F9A               	movwf	(??_xtoa+3)& (0+255),b
  1534  000402  5197               	movf	??_xtoa& (0+255),w,b
  1535  000404  2799               	addwf	(??_xtoa+2)& (0+255),f,b
  1536  000406  5198               	movf	(??_xtoa+1)& (0+255),w,b
  1537  000408  239A               	addwfc	(??_xtoa+3)& (0+255),f,b
  1538  00040A  519A               	movf	(??_xtoa+3)& (0+255),w,b
  1539  00040C  E106               	bnz	u1420
  1540  00040E  0E1A               	movlw	26
  1541  000410  5D99               	subwf	(??_xtoa+2)& (0+255),w,b
  1542  000412  B0D8               	btfsc	status,0,c
  1543  000414  D002               	goto	u1420
  1544  000416  0E01               	movlw	1
  1545  000418  D001               	goto	u1430
  1546  00041A                     u1420:
  1547  00041A  0E00               	movlw	0
  1548  00041C                     u1430:
  1549  00041C  6FA1               	movwf	_xtoa$806& (0+255),b
  1550  00041E  6BA2               	clrf	(_xtoa$806+1)& (0+255),b
  1551                           
  1552                           ; BSR set to: 0
  1553  000420  51A1               	movf	_xtoa$806& (0+255),w,b
  1554  000422  11A2               	iorwf	(_xtoa$806+1)& (0+255),w,b
  1555  000424  B4D8               	btfsc	status,2,c
  1556  000426  D00A               	goto	l1759
  1557                           
  1558                           ; BSR set to: 0
  1559                           ;/opt/microchip/xc8/v2.05/pic/sources/c99/common/doprnt.c: 647:             c = toupper(
      +                          c);
  1560  000428  C0B1  F076         	movff	xtoa@c,toupper@c
  1561  00042C  C0B2  F077         	movff	xtoa@c+1,toupper@c+1
  1562  000430  EC14  F007         	call	_toupper	;wreg free
  1563  000434  C076  F0B1         	movff	?_toupper,xtoa@c
  1564  000438  C077  F0B2         	movff	?_toupper+1,xtoa@c+1
  1565  00043C                     l1759:
  1566                           
  1567                           ;/opt/microchip/xc8/v2.05/pic/sources/c99/common/doprnt.c: 649:         dbuf[i] = (char)
      +                          c;
  1568  00043C  0E00               	movlw	low _dbuf
  1569  00043E  0100               	movlb	0	; () banked
  1570  000440  25AF               	addwf	xtoa@i& (0+255),w,b
  1571  000442  6ED9               	movwf	fsr2l,c
  1572  000444  0E01               	movlw	high _dbuf
  1573  000446  21B0               	addwfc	(xtoa@i+1)& (0+255),w,b
  1574  000448  6EDA               	movwf	fsr2h,c
  1575  00044A  C0B1  FFDF         	movff	xtoa@c,indf2
  1576                           
  1577                           ; BSR set to: 0
  1578                           ;/opt/microchip/xc8/v2.05/pic/sources/c99/common/doprnt.c: 650:         --p;
  1579  00044E  07A3               	decf	xtoa@p& (0+255),f,b
  1580  000450  A0D8               	btfss	status,0,c
  1581  000452  07A4               	decf	(xtoa@p+1)& (0+255),f,b
  1582                           
  1583                           ; BSR set to: 0
  1584                           ;/opt/microchip/xc8/v2.05/pic/sources/c99/common/doprnt.c: 651:         --w;
  1585  000454  07A5               	decf	xtoa@w& (0+255),f,b
  1586  000456  A0D8               	btfss	status,0,c
  1587  000458  07A6               	decf	(xtoa@w+1)& (0+255),f,b
  1588                           
  1589                           ; BSR set to: 0
  1590                           ;/opt/microchip/xc8/v2.05/pic/sources/c99/common/doprnt.c: 652:         n = n >> 4;
  1591  00045A  C0A7  F097         	movff	xtoa@n,??_xtoa
  1592  00045E  C0A8  F098         	movff	xtoa@n+1,??_xtoa+1
  1593  000462  C0A9  F099         	movff	xtoa@n+2,??_xtoa+2
  1594  000466  C0AA  F09A         	movff	xtoa@n+3,??_xtoa+3
  1595  00046A  C0AB  F09B         	movff	xtoa@n+4,??_xtoa+4
  1596  00046E  C0AC  F09C         	movff	xtoa@n+5,??_xtoa+5
  1597  000472  C0AD  F09D         	movff	xtoa@n+6,??_xtoa+6
  1598  000476  C0AE  F09E         	movff	xtoa@n+7,??_xtoa+7
  1599  00047A  0E05               	movlw	5
  1600  00047C  D009               	goto	u1450
  1601  00047E                     u1455:
  1602  00047E  90D8               	bcf	status,0,c
  1603  000480  339E               	rrcf	(??_xtoa+7)& (0+255),f,b
  1604  000482  339D               	rrcf	(??_xtoa+6)& (0+255),f,b
  1605  000484  339C               	rrcf	(??_xtoa+5)& (0+255),f,b
  1606  000486  339B               	rrcf	(??_xtoa+4)& (0+255),f,b
  1607  000488  339A               	rrcf	(??_xtoa+3)& (0+255),f,b
  1608  00048A  3399               	rrcf	(??_xtoa+2)& (0+255),f,b
  1609  00048C  3398               	rrcf	(??_xtoa+1)& (0+255),f,b
  1610  00048E  3397               	rrcf	??_xtoa& (0+255),f,b
  1611  000490                     u1450:
  1612  000490  2EE8               	decfsz	wreg,f,c
  1613  000492  D7F5               	goto	u1455
  1614  000494  C097  F0A7         	movff	??_xtoa,xtoa@n
  1615  000498  C098  F0A8         	movff	??_xtoa+1,xtoa@n+1
  1616  00049C  C099  F0A9         	movff	??_xtoa+2,xtoa@n+2
  1617  0004A0  C09A  F0AA         	movff	??_xtoa+3,xtoa@n+3
  1618  0004A4  C09B  F0AB         	movff	??_xtoa+4,xtoa@n+4
  1619  0004A8  C09C  F0AC         	movff	??_xtoa+5,xtoa@n+5
  1620  0004AC  C09D  F0AD         	movff	??_xtoa+6,xtoa@n+6
  1621  0004B0  C09E  F0AE         	movff	??_xtoa+7,xtoa@n+7
  1622  0004B4                     l1767:
  1623                           
  1624                           ;/opt/microchip/xc8/v2.05/pic/sources/c99/common/doprnt.c: 642:     while (!(i < 2) && (
      +                          n || (0 < p) || ((0 < w) && (flags & (1 << 1))))) {
  1625  0004B4  0100               	movlb	0	; () banked
  1626  0004B6  BFB0               	btfsc	(xtoa@i+1)& (0+255),7,b
  1627  0004B8  D020               	goto	u1500
  1628  0004BA  51B0               	movf	(xtoa@i+1)& (0+255),w,b
  1629  0004BC  E104               	bnz	u1460
  1630  0004BE  0E02               	movlw	2
  1631  0004C0  5DAF               	subwf	xtoa@i& (0+255),w,b
  1632  0004C2  A0D8               	btfss	status,0,c
  1633  0004C4  D01A               	goto	u1500
  1634  0004C6                     u1460:
  1635                           
  1636                           ; BSR set to: 0
  1637  0004C6  51A7               	movf	xtoa@n& (0+255),w,b
  1638  0004C8  11A8               	iorwf	(xtoa@n+1)& (0+255),w,b
  1639  0004CA  11A9               	iorwf	(xtoa@n+2)& (0+255),w,b
  1640  0004CC  11AA               	iorwf	(xtoa@n+3)& (0+255),w,b
  1641  0004CE  11AB               	iorwf	(xtoa@n+4)& (0+255),w,b
  1642  0004D0  11AC               	iorwf	(xtoa@n+5)& (0+255),w,b
  1643  0004D2  11AD               	iorwf	(xtoa@n+6)& (0+255),w,b
  1644  0004D4  11AE               	iorwf	(xtoa@n+7)& (0+255),w,b
  1645  0004D6  A4D8               	btfss	status,2,c
  1646  0004D8  D759               	goto	l1737
  1647                           
  1648                           ; BSR set to: 0
  1649  0004DA  BFA4               	btfsc	(xtoa@p+1)& (0+255),7,b
  1650  0004DC  D005               	goto	u1480
  1651  0004DE  51A4               	movf	(xtoa@p+1)& (0+255),w,b
  1652  0004E0  E102               	bnz	u1481
  1653  0004E2  05A3               	decf	xtoa@p& (0+255),w,b
  1654  0004E4  B0D8               	btfsc	status,0,c
  1655  0004E6                     u1481:
  1656  0004E6  D752               	goto	l1737
  1657  0004E8                     u1480:
  1658                           
  1659                           ; BSR set to: 0
  1660  0004E8  BFA6               	btfsc	(xtoa@w+1)& (0+255),7,b
  1661  0004EA  D007               	goto	u1500
  1662  0004EC  51A6               	movf	(xtoa@w+1)& (0+255),w,b
  1663  0004EE  E103               	bnz	u1490
  1664  0004F0  05A5               	decf	xtoa@w& (0+255),w,b
  1665  0004F2  A0D8               	btfss	status,0,c
  1666  0004F4  D002               	goto	u1500
  1667  0004F6                     u1490:
  1668                           
  1669                           ; BSR set to: 0
  1670  0004F6  B3DC               	btfsc	_flags& (0+255),1,b
  1671  0004F8  D749               	goto	l1737
  1672  0004FA                     u1500:
  1673                           
  1674                           ; BSR set to: 0
  1675                           ;/opt/microchip/xc8/v2.05/pic/sources/c99/common/doprnt.c: 656:     if (flags & (1 << 4)
      +                          ) {
  1676  0004FA  A9DC               	btfss	_flags& (0+255),4,b
  1677  0004FC  D016               	goto	l1783
  1678                           
  1679                           ; BSR set to: 0
  1680                           ;/opt/microchip/xc8/v2.05/pic/sources/c99/common/doprnt.c: 657:         --i;
  1681  0004FE  07AF               	decf	xtoa@i& (0+255),f,b
  1682  000500  A0D8               	btfss	status,0,c
  1683  000502  07B0               	decf	(xtoa@i+1)& (0+255),f,b
  1684                           
  1685                           ; BSR set to: 0
  1686                           ;/opt/microchip/xc8/v2.05/pic/sources/c99/common/doprnt.c: 658:         dbuf[i] = x;
  1687  000504  0E00               	movlw	low _dbuf
  1688  000506  25AF               	addwf	xtoa@i& (0+255),w,b
  1689  000508  6ED9               	movwf	fsr2l,c
  1690  00050A  0E01               	movlw	high _dbuf
  1691  00050C  21B0               	addwfc	(xtoa@i+1)& (0+255),w,b
  1692  00050E  6EDA               	movwf	fsr2h,c
  1693  000510  C096  FFDF         	movff	xtoa@x,indf2
  1694                           
  1695                           ; BSR set to: 0
  1696                           ;/opt/microchip/xc8/v2.05/pic/sources/c99/common/doprnt.c: 659:         --i;
  1697  000514  07AF               	decf	xtoa@i& (0+255),f,b
  1698  000516  A0D8               	btfss	status,0,c
  1699  000518  07B0               	decf	(xtoa@i+1)& (0+255),f,b
  1700                           
  1701                           ;/opt/microchip/xc8/v2.05/pic/sources/c99/common/doprnt.c: 660:         dbuf[i] = '0';
  1702  00051A  0E00               	movlw	low _dbuf
  1703  00051C  25AF               	addwf	xtoa@i& (0+255),w,b
  1704  00051E  6ED9               	movwf	fsr2l,c
  1705  000520  0E01               	movlw	high _dbuf
  1706  000522  21B0               	addwfc	(xtoa@i+1)& (0+255),w,b
  1707  000524  6EDA               	movwf	fsr2h,c
  1708  000526  0E30               	movlw	48
  1709  000528  6EDF               	movwf	indf2,c
  1710  00052A                     l1783:
  1711                           
  1712                           ; BSR set to: 0
  1713                           ;/opt/microchip/xc8/v2.05/pic/sources/c99/common/doprnt.c: 664:     return pad(fp, &dbuf
      +                          [i], w);
  1714  00052A  C08C  F081         	movff	xtoa@fp,pad@fp
  1715  00052E  C08D  F082         	movff	xtoa@fp+1,pad@fp+1
  1716  000532  0E00               	movlw	low _dbuf
  1717  000534  25AF               	addwf	xtoa@i& (0+255),w,b
  1718  000536  6F83               	movwf	pad@buf& (0+255),b
  1719  000538  0E01               	movlw	high _dbuf
  1720  00053A  21B0               	addwfc	(xtoa@i+1)& (0+255),w,b
  1721  00053C  6F84               	movwf	(pad@buf+1)& (0+255),b
  1722  00053E  C0A5  F085         	movff	xtoa@w,pad@p
  1723  000542  C0A6  F086         	movff	xtoa@w+1,pad@p+1
  1724  000546  ECB5  F005         	call	_pad	;wreg free
  1725  00054A  C081  F08C         	movff	?_pad,?_xtoa
  1726  00054E  C082  F08D         	movff	?_pad+1,?_xtoa+1
  1727  000552  0012               	return		;funcret
  1728  000554                     __end_of_xtoa:
  1729                           	opt callstack 0
  1730                           
  1731 ;; *************** function _toupper *****************
  1732 ;; Defined at:
  1733 ;;		line 4 in file "/opt/microchip/xc8/v2.05/pic/sources/c99/common/toupper.c"
  1734 ;; Parameters:    Size  Location     Type
  1735 ;;  c               2   22[BANK0 ] int 
  1736 ;; Auto vars:     Size  Location     Type
  1737 ;;		None
  1738 ;; Return value:  Size  Location     Type
  1739 ;;                  2   22[BANK0 ] int 
  1740 ;; Registers used:
  1741 ;;		wreg, status,2, status,0
  1742 ;; Tracked objects:
  1743 ;;		On entry : 0/0
  1744 ;;		On exit  : 0/0
  1745 ;;		Unchanged: 0/0
  1746 ;; Data sizes:     COMRAM   BANK0   BANK1   BANK2
  1747 ;;      Params:         0       2       0       0
  1748 ;;      Locals:         0       2       0       0
  1749 ;;      Temps:          0       4       0       0
  1750 ;;      Totals:         0       8       0       0
  1751 ;;Total ram usage:        8 bytes
  1752 ;; Hardware stack levels used:    1
  1753 ;; Hardware stack levels required when called:   11
  1754 ;; This function calls:
  1755 ;;		_islower
  1756 ;; This function is called by:
  1757 ;;		_xtoa
  1758 ;; This function uses a non-reentrant model
  1759 ;;
  1760                           
  1761                           	psect	text6
  1762  000E28                     __ptext6:
  1763                           	opt callstack 0
  1764  000E28                     _toupper:
  1765                           	opt callstack 15
  1766                           
  1767                           ;incstack = 0
  1768  000E28  0E9F               	movlw	159
  1769  000E2A  0100               	movlb	0	; () banked
  1770  000E2C  6F78               	movwf	??_toupper& (0+255),b
  1771  000E2E  0EFF               	movlw	255
  1772  000E30  6F79               	movwf	(??_toupper+1)& (0+255),b
  1773  000E32  C076  F07A         	movff	toupper@c,??_toupper+2
  1774  000E36  C077  F07B         	movff	toupper@c+1,??_toupper+3
  1775  000E3A  5178               	movf	??_toupper& (0+255),w,b
  1776  000E3C  277A               	addwf	(??_toupper+2)& (0+255),f,b
  1777  000E3E  5179               	movf	(??_toupper+1)& (0+255),w,b
  1778  000E40  237B               	addwfc	(??_toupper+3)& (0+255),f,b
  1779  000E42  517B               	movf	(??_toupper+3)& (0+255),w,b
  1780  000E44  E106               	bnz	u1210
  1781  000E46  0E1A               	movlw	26
  1782  000E48  5D7A               	subwf	(??_toupper+2)& (0+255),w,b
  1783  000E4A  B0D8               	btfsc	status,0,c
  1784  000E4C  D002               	goto	u1210
  1785  000E4E  0E01               	movlw	1
  1786  000E50  D001               	goto	u1220
  1787  000E52                     u1210:
  1788  000E52  0E00               	movlw	0
  1789  000E54                     u1220:
  1790  000E54  6F7C               	movwf	_toupper$1335& (0+255),b
  1791  000E56  6B7D               	clrf	(_toupper$1335+1)& (0+255),b
  1792                           
  1793                           ; BSR set to: 0
  1794  000E58  517C               	movf	_toupper$1335& (0+255),w,b
  1795  000E5A  117D               	iorwf	(_toupper$1335+1)& (0+255),w,b
  1796  000E5C  B4D8               	btfsc	status,2,c
  1797  000E5E  D005               	goto	l991
  1798                           
  1799                           ; BSR set to: 0
  1800  000E60  0E5F               	movlw	95
  1801  000E62  1576               	andwf	toupper@c& (0+255),w,b
  1802  000E64  6F76               	movwf	?_toupper& (0+255),b
  1803  000E66  6B77               	clrf	(?_toupper+1)& (0+255),b
  1804  000E68  0012               	return	
  1805  000E6A                     l991:
  1806                           
  1807                           ; BSR set to: 0
  1808  000E6A  C076  F076         	movff	toupper@c,?_toupper
  1809  000E6E  C077  F077         	movff	toupper@c+1,?_toupper+1
  1810                           
  1811                           ; BSR set to: 0
  1812  000E72  0012               	return		;funcret
  1813  000E74                     __end_of_toupper:
  1814                           	opt callstack 0
  1815                           
  1816 ;; *************** function _islower *****************
  1817 ;; Defined at:
  1818 ;;		line 5 in file "/opt/microchip/xc8/v2.05/pic/sources/c99/common/islower.c"
  1819 ;; Parameters:    Size  Location     Type
  1820 ;;  c               2   16[BANK0 ] int 
  1821 ;; Auto vars:     Size  Location     Type
  1822 ;;		None
  1823 ;; Return value:  Size  Location     Type
  1824 ;;                  2   16[BANK0 ] int 
  1825 ;; Registers used:
  1826 ;;		wreg, status,2, status,0
  1827 ;; Tracked objects:
  1828 ;;		On entry : 0/0
  1829 ;;		On exit  : 0/0
  1830 ;;		Unchanged: 0/0
  1831 ;; Data sizes:     COMRAM   BANK0   BANK1   BANK2
  1832 ;;      Params:         0       2       0       0
  1833 ;;      Locals:         0       0       0       0
  1834 ;;      Temps:          0       4       0       0
  1835 ;;      Totals:         0       6       0       0
  1836 ;;Total ram usage:        6 bytes
  1837 ;; Hardware stack levels used:    1
  1838 ;; Hardware stack levels required when called:   10
  1839 ;; This function calls:
  1840 ;;		Nothing
  1841 ;; This function is called by:
  1842 ;;		_toupper
  1843 ;; This function uses a non-reentrant model
  1844 ;;
  1845                           
  1846                           	psect	text7
  1847  000FE6                     __ptext7:
  1848                           	opt callstack 0
  1849  000FE6                     _islower:
  1850                           	opt callstack 15
  1851                           
  1852                           ; BSR set to: 0
  1853                           ;incstack = 0
  1854  000FE6  0E9F               	movlw	159
  1855  000FE8  0100               	movlb	0	; () banked
  1856  000FEA  6F72               	movwf	??_islower& (0+255),b
  1857  000FEC  0EFF               	movlw	255
  1858  000FEE  6F73               	movwf	(??_islower+1)& (0+255),b
  1859  000FF0  C070  F074         	movff	islower@c,??_islower+2
  1860  000FF4  C071  F075         	movff	islower@c+1,??_islower+3
  1861  000FF8  5172               	movf	??_islower& (0+255),w,b
  1862  000FFA  2774               	addwf	(??_islower+2)& (0+255),f,b
  1863  000FFC  5173               	movf	(??_islower+1)& (0+255),w,b
  1864  000FFE  2375               	addwfc	(??_islower+3)& (0+255),f,b
  1865  001000  5175               	movf	(??_islower+3)& (0+255),w,b
  1866  001002  E106               	bnz	u1070
  1867  001004  0E1A               	movlw	26
  1868  001006  5D74               	subwf	(??_islower+2)& (0+255),w,b
  1869  001008  B0D8               	btfsc	status,0,c
  1870  00100A  D002               	goto	u1070
  1871  00100C  0E01               	movlw	1
  1872  00100E  D001               	goto	u1080
  1873  001010                     u1070:
  1874  001010  0E00               	movlw	0
  1875  001012                     u1080:
  1876  001012  6F70               	movwf	?_islower& (0+255),b
  1877  001014  6B71               	clrf	(?_islower+1)& (0+255),b
  1878                           
  1879                           ; BSR set to: 0
  1880  001016  0012               	return		;funcret
  1881  001018                     __end_of_islower:
  1882                           	opt callstack 0
  1883                           
  1884 ;; *************** function _pad *****************
  1885 ;; Defined at:
  1886 ;;		line 72 in file "/opt/microchip/xc8/v2.05/pic/sources/c99/common/doprnt.c"
  1887 ;; Parameters:    Size  Location     Type
  1888 ;;  fp              2   33[BANK0 ] PTR struct _IO_FILE
  1889 ;;		 -> NULL(0), 
  1890 ;;  buf             2   35[BANK0 ] PTR unsigned char 
  1891 ;;		 -> dbuf(32), 
  1892 ;;  p               2   37[BANK0 ] int 
  1893 ;; Auto vars:     Size  Location     Type
  1894 ;;  w               2   42[BANK0 ] int 
  1895 ;;  i               2   40[BANK0 ] int 
  1896 ;; Return value:  Size  Location     Type
  1897 ;;                  2   33[BANK0 ] int 
  1898 ;; Registers used:
  1899 ;;		wreg, fsr1l, fsr1h, fsr2l, fsr2h, status,2, status,0, cstack
  1900 ;; Tracked objects:
  1901 ;;		On entry : 0/0
  1902 ;;		On exit  : 0/0
  1903 ;;		Unchanged: 0/0
  1904 ;; Data sizes:     COMRAM   BANK0   BANK1   BANK2
  1905 ;;      Params:         0       6       0       0
  1906 ;;      Locals:         0       4       0       0
  1907 ;;      Temps:          0       1       0       0
  1908 ;;      Totals:         0      11       0       0
  1909 ;;Total ram usage:       11 bytes
  1910 ;; Hardware stack levels used:    1
  1911 ;; Hardware stack levels required when called:   13
  1912 ;; This function calls:
  1913 ;;		_fputc
  1914 ;;		_fputs
  1915 ;;		_strlen
  1916 ;; This function is called by:
  1917 ;;		_xtoa
  1918 ;; This function uses a non-reentrant model
  1919 ;;
  1920                           
  1921                           	psect	text8
  1922  000B6A                     __ptext8:
  1923                           	opt callstack 0
  1924  000B6A                     _pad:
  1925                           	opt callstack 13
  1926                           
  1927                           ;/opt/microchip/xc8/v2.05/pic/sources/c99/common/doprnt.c: 72: static int pad(FILE *fp, 
      +                          char *buf, int p);/opt/microchip/xc8/v2.05/pic/sources/c99/common/doprnt.c: 73: {;/opt/m
      +                          icrochip/xc8/v2.05/pic/sources/c99/common/doprnt.c: 74:     int i, w;;/opt/microchip/xc8
      +                          /v2.05/pic/sources/c99/common/doprnt.c: 77:     if (flags & (1 << 0)) {
  1928                           
  1929                           ; BSR set to: 0
  1930                           ;incstack = 0
  1931  000B6A  0100               	movlb	0	; () banked
  1932  000B6C  A1DC               	btfss	_flags& (0+255),0,b
  1933  000B6E  D00A               	goto	l1645
  1934                           
  1935                           ; BSR set to: 0
  1936                           ;/opt/microchip/xc8/v2.05/pic/sources/c99/common/doprnt.c: 78:         fputs((const char
      +                           *)buf, fp);
  1937  000B70  C083  F07A         	movff	pad@buf,fputs@s
  1938  000B74  C084  F07B         	movff	pad@buf+1,fputs@s+1
  1939  000B78  C081  F07C         	movff	pad@fp,fputs@fp
  1940  000B7C  C082  F07D         	movff	pad@fp+1,fputs@fp+1
  1941  000B80  EC84  F007         	call	_fputs	;wreg free
  1942  000B84                     l1645:
  1943                           
  1944                           ;/opt/microchip/xc8/v2.05/pic/sources/c99/common/doprnt.c: 82:     w = (p < 0) ? 0 : p;
  1945  000B84  0100               	movlb	0	; () banked
  1946  000B86  BF86               	btfsc	(pad@p+1)& (0+255),7,b
  1947  000B88  D005               	goto	l1649
  1948                           
  1949                           ; BSR set to: 0
  1950  000B8A  C085  F08A         	movff	pad@p,pad@w
  1951  000B8E  C086  F08B         	movff	pad@p+1,pad@w+1
  1952  000B92  D004               	goto	l218
  1953  000B94                     l1649:
  1954                           
  1955                           ; BSR set to: 0
  1956  000B94  0E00               	movlw	0
  1957  000B96  6F8B               	movwf	(pad@w+1)& (0+255),b
  1958  000B98  0E00               	movlw	0
  1959  000B9A  6F8A               	movwf	pad@w& (0+255),b
  1960  000B9C                     l218:
  1961                           
  1962                           ; BSR set to: 0
  1963                           ;/opt/microchip/xc8/v2.05/pic/sources/c99/common/doprnt.c: 83:     i = 0;
  1964  000B9C  0E00               	movlw	0
  1965  000B9E  6F89               	movwf	(pad@i+1)& (0+255),b
  1966  000BA0  0E00               	movlw	0
  1967  000BA2  6F88               	movwf	pad@i& (0+255),b
  1968                           
  1969                           ;/opt/microchip/xc8/v2.05/pic/sources/c99/common/doprnt.c: 84:     while (i < w) {
  1970  000BA4  D00D               	goto	l1655
  1971  000BA6                     l1651:
  1972                           
  1973                           ; BSR set to: 0
  1974                           ;/opt/microchip/xc8/v2.05/pic/sources/c99/common/doprnt.c: 85:         fputc(' ', fp);
  1975  000BA6  0E00               	movlw	0
  1976  000BA8  6F72               	movwf	(fputc@c+1)& (0+255),b
  1977  000BAA  0E20               	movlw	32
  1978  000BAC  6F71               	movwf	fputc@c& (0+255),b
  1979  000BAE  C081  F073         	movff	pad@fp,fputc@fp
  1980  000BB2  C082  F074         	movff	pad@fp+1,fputc@fp+1
  1981  000BB6  EC51  F006         	call	_fputc	;wreg free
  1982                           
  1983                           ;/opt/microchip/xc8/v2.05/pic/sources/c99/common/doprnt.c: 86:         ++i;
  1984  000BBA  0100               	movlb	0	; () banked
  1985  000BBC  4B88               	infsnz	pad@i& (0+255),f,b
  1986  000BBE  2B89               	incf	(pad@i+1)& (0+255),f,b
  1987  000BC0                     l1655:
  1988                           
  1989                           ; BSR set to: 0
  1990                           ;/opt/microchip/xc8/v2.05/pic/sources/c99/common/doprnt.c: 84:     while (i < w) {
  1991  000BC0  518A               	movf	pad@w& (0+255),w,b
  1992  000BC2  5D88               	subwf	pad@i& (0+255),w,b
  1993  000BC4  5189               	movf	(pad@i+1)& (0+255),w,b
  1994  000BC6  0A80               	xorlw	128
  1995  000BC8  6F87               	movwf	??_pad& (0+255),b
  1996  000BCA  518B               	movf	(pad@w+1)& (0+255),w,b
  1997  000BCC  0A80               	xorlw	128
  1998  000BCE  5987               	subwfb	??_pad& (0+255),w,b
  1999  000BD0  A0D8               	btfss	status,0,c
  2000  000BD2  D7E9               	goto	l1651
  2001                           
  2002                           ; BSR set to: 0
  2003                           ;/opt/microchip/xc8/v2.05/pic/sources/c99/common/doprnt.c: 90:     if (!(flags & (1 << 0
      +                          ))) {
  2004  000BD4  B1DC               	btfsc	_flags& (0+255),0,b
  2005  000BD6  D00A               	goto	l1659
  2006                           
  2007                           ; BSR set to: 0
  2008                           ;/opt/microchip/xc8/v2.05/pic/sources/c99/common/doprnt.c: 91:         fputs((const char
      +                           *)buf, fp);
  2009  000BD8  C083  F07A         	movff	pad@buf,fputs@s
  2010  000BDC  C084  F07B         	movff	pad@buf+1,fputs@s+1
  2011  000BE0  C081  F07C         	movff	pad@fp,fputs@fp
  2012  000BE4  C082  F07D         	movff	pad@fp+1,fputs@fp+1
  2013  000BE8  EC84  F007         	call	_fputs	;wreg free
  2014  000BEC                     l1659:
  2015                           
  2016                           ;/opt/microchip/xc8/v2.05/pic/sources/c99/common/doprnt.c: 94:     return strlen(buf) + 
      +                          w;
  2017  000BEC  C083  F070         	movff	pad@buf,strlen@s
  2018  000BF0  C084  F071         	movff	pad@buf+1,strlen@s+1
  2019  000BF4  EC6D  F008         	call	_strlen	;wreg free
  2020  000BF8  0100               	movlb	0	; () banked
  2021  000BFA  518A               	movf	pad@w& (0+255),w,b
  2022  000BFC  2570               	addwf	?_strlen& (0+255),w,b
  2023  000BFE  6F81               	movwf	?_pad& (0+255),b
  2024  000C00  518B               	movf	(pad@w+1)& (0+255),w,b
  2025  000C02  2171               	addwfc	(?_strlen+1)& (0+255),w,b
  2026  000C04  6F82               	movwf	(?_pad+1)& (0+255),b
  2027                           
  2028                           ; BSR set to: 0
  2029  000C06  0012               	return		;funcret
  2030  000C08                     __end_of_pad:
  2031                           	opt callstack 0
  2032                           
  2033 ;; *************** function _strlen *****************
  2034 ;; Defined at:
  2035 ;;		line 12 in file "/opt/microchip/xc8/v2.05/pic/sources/c99/common/strlen.c"
  2036 ;; Parameters:    Size  Location     Type
  2037 ;;  s               2   16[BANK0 ] PTR const unsigned char 
  2038 ;;		 -> dbuf(32), 
  2039 ;; Auto vars:     Size  Location     Type
  2040 ;;  a               2   18[BANK0 ] PTR const unsigned char 
  2041 ;;		 -> dbuf(32), 
  2042 ;; Return value:  Size  Location     Type
  2043 ;;                  2   16[BANK0 ] unsigned int 
  2044 ;; Registers used:
  2045 ;;		wreg, fsr2l, fsr2h, status,2, status,0
  2046 ;; Tracked objects:
  2047 ;;		On entry : 0/0
  2048 ;;		On exit  : 0/0
  2049 ;;		Unchanged: 0/0
  2050 ;; Data sizes:     COMRAM   BANK0   BANK1   BANK2
  2051 ;;      Params:         0       2       0       0
  2052 ;;      Locals:         0       2       0       0
  2053 ;;      Temps:          0       0       0       0
  2054 ;;      Totals:         0       4       0       0
  2055 ;;Total ram usage:        4 bytes
  2056 ;; Hardware stack levels used:    1
  2057 ;; Hardware stack levels required when called:   10
  2058 ;; This function calls:
  2059 ;;		Nothing
  2060 ;; This function is called by:
  2061 ;;		_pad
  2062 ;; This function uses a non-reentrant model
  2063 ;;
  2064                           
  2065                           	psect	text9
  2066  0010DA                     __ptext9:
  2067                           	opt callstack 0
  2068  0010DA                     _strlen:
  2069                           	opt callstack 15
  2070                           
  2071                           ; BSR set to: 0
  2072                           ;incstack = 0
  2073  0010DA  C070  F072         	movff	strlen@s,strlen@a
  2074  0010DE  C071  F073         	movff	strlen@s+1,strlen@a+1
  2075  0010E2  D003               	goto	l1609
  2076  0010E4                     l1607:
  2077  0010E4  0100               	movlb	0	; () banked
  2078  0010E6  4B70               	infsnz	strlen@s& (0+255),f,b
  2079  0010E8  2B71               	incf	(strlen@s+1)& (0+255),f,b
  2080  0010EA                     l1609:
  2081  0010EA  C070  FFD9         	movff	strlen@s,fsr2l
  2082  0010EE  C071  FFDA         	movff	strlen@s+1,fsr2h
  2083  0010F2  50DF               	movf	indf2,w,c
  2084  0010F4  A4D8               	btfss	status,2,c
  2085  0010F6  D7F6               	goto	l1607
  2086  0010F8  0100               	movlb	0	; () banked
  2087  0010FA  5172               	movf	strlen@a& (0+255),w,b
  2088  0010FC  5D70               	subwf	strlen@s& (0+255),w,b
  2089  0010FE  6F70               	movwf	?_strlen& (0+255),b
  2090  001100  5173               	movf	(strlen@a+1)& (0+255),w,b
  2091  001102  5971               	subwfb	(strlen@s+1)& (0+255),w,b
  2092  001104  6F71               	movwf	(?_strlen+1)& (0+255),b
  2093                           
  2094                           ; BSR set to: 0
  2095  001106  0012               	return		;funcret
  2096  001108                     __end_of_strlen:
  2097                           	opt callstack 0
  2098                           
  2099 ;; *************** function _fputs *****************
  2100 ;; Defined at:
  2101 ;;		line 8 in file "/opt/microchip/xc8/v2.05/pic/sources/c99/common/nf_fputs.c"
  2102 ;; Parameters:    Size  Location     Type
  2103 ;;  s               2   26[BANK0 ] PTR const unsigned char 
  2104 ;;		 -> dbuf(32), 
  2105 ;;  fp              2   28[BANK0 ] PTR struct _IO_FILE
  2106 ;;		 -> NULL(0), 
  2107 ;; Auto vars:     Size  Location     Type
  2108 ;;  i               2   31[BANK0 ] int 
  2109 ;;  c               1   30[BANK0 ] unsigned char 
  2110 ;; Return value:  Size  Location     Type
  2111 ;;                  2   26[BANK0 ] int 
  2112 ;; Registers used:
  2113 ;;		wreg, fsr1l, fsr1h, fsr2l, fsr2h, status,2, status,0, cstack
  2114 ;; Tracked objects:
  2115 ;;		On entry : 0/0
  2116 ;;		On exit  : 0/0
  2117 ;;		Unchanged: 0/0
  2118 ;; Data sizes:     COMRAM   BANK0   BANK1   BANK2
  2119 ;;      Params:         0       4       0       0
  2120 ;;      Locals:         0       3       0       0
  2121 ;;      Temps:          0       0       0       0
  2122 ;;      Totals:         0       7       0       0
  2123 ;;Total ram usage:        7 bytes
  2124 ;; Hardware stack levels used:    1
  2125 ;; Hardware stack levels required when called:   12
  2126 ;; This function calls:
  2127 ;;		_fputc
  2128 ;; This function is called by:
  2129 ;;		_pad
  2130 ;; This function uses a non-reentrant model
  2131 ;;
  2132                           
  2133                           	psect	text10
  2134  000F08                     __ptext10:
  2135                           	opt callstack 0
  2136  000F08                     _fputs:
  2137                           	opt callstack 13
  2138                           
  2139                           ; BSR set to: 0
  2140                           ;incstack = 0
  2141  000F08  0E00               	movlw	0
  2142  000F0A  0100               	movlb	0	; () banked
  2143  000F0C  6F80               	movwf	(fputs@i+1)& (0+255),b
  2144  000F0E  0E00               	movlw	0
  2145  000F10  6F7F               	movwf	fputs@i& (0+255),b
  2146  000F12  D00C               	goto	l1603
  2147  000F14                     l1599:
  2148                           
  2149                           ; BSR set to: 0
  2150  000F14  C07E  F071         	movff	fputs@c,fputc@c
  2151  000F18  6B72               	clrf	(fputc@c+1)& (0+255),b
  2152  000F1A  C07C  F073         	movff	fputs@fp,fputc@fp
  2153  000F1E  C07D  F074         	movff	fputs@fp+1,fputc@fp+1
  2154  000F22  EC51  F006         	call	_fputc	;wreg free
  2155  000F26  0100               	movlb	0	; () banked
  2156  000F28  4B7F               	infsnz	fputs@i& (0+255),f,b
  2157  000F2A  2B80               	incf	(fputs@i+1)& (0+255),f,b
  2158  000F2C                     l1603:
  2159                           
  2160                           ; BSR set to: 0
  2161  000F2C  517F               	movf	fputs@i& (0+255),w,b
  2162  000F2E  257A               	addwf	fputs@s& (0+255),w,b
  2163  000F30  6ED9               	movwf	fsr2l,c
  2164  000F32  5180               	movf	(fputs@i+1)& (0+255),w,b
  2165  000F34  217B               	addwfc	(fputs@s+1)& (0+255),w,b
  2166  000F36  6EDA               	movwf	fsr2h,c
  2167  000F38  50DF               	movf	indf2,w,c
  2168  000F3A  6F7E               	movwf	fputs@c& (0+255),b
  2169  000F3C  517E               	movf	fputs@c& (0+255),w,b
  2170  000F3E  B4D8               	btfsc	status,2,c
  2171  000F40  0012               	return	
  2172  000F42  D7E8               	goto	l1599
  2173  000F44                     __end_of_fputs:
  2174                           	opt callstack 0
  2175                           
  2176 ;; *************** function _fputc *****************
  2177 ;; Defined at:
  2178 ;;		line 8 in file "/opt/microchip/xc8/v2.05/pic/sources/c99/common/nf_fputc.c"
  2179 ;; Parameters:    Size  Location     Type
  2180 ;;  c               2   17[BANK0 ] int 
  2181 ;;  fp              2   19[BANK0 ] PTR struct _IO_FILE
  2182 ;;		 -> NULL(0), 
  2183 ;; Auto vars:     Size  Location     Type
  2184 ;;		None
  2185 ;; Return value:  Size  Location     Type
  2186 ;;                  2   17[BANK0 ] int 
  2187 ;; Registers used:
  2188 ;;		wreg, fsr1l, fsr1h, fsr2l, fsr2h, status,2, status,0, cstack
  2189 ;; Tracked objects:
  2190 ;;		On entry : 0/0
  2191 ;;		On exit  : 0/0
  2192 ;;		Unchanged: 0/0
  2193 ;; Data sizes:     COMRAM   BANK0   BANK1   BANK2
  2194 ;;      Params:         0       4       0       0
  2195 ;;      Locals:         0       0       0       0
  2196 ;;      Temps:          0       5       0       0
  2197 ;;      Totals:         0       9       0       0
  2198 ;;Total ram usage:        9 bytes
  2199 ;; Hardware stack levels used:    1
  2200 ;; Hardware stack levels required when called:   11
  2201 ;; This function calls:
  2202 ;;		_putch
  2203 ;; This function is called by:
  2204 ;;		_pad
  2205 ;;		_vfpfcnvrt
  2206 ;;		_fputs
  2207 ;; This function uses a non-reentrant model
  2208 ;;
  2209                           
  2210                           	psect	text11
  2211  000CA2                     __ptext11:
  2212                           	opt callstack 0
  2213  000CA2                     _fputc:
  2214                           	opt callstack 13
  2215                           
  2216                           ; BSR set to: 0
  2217                           ;incstack = 0
  2218  000CA2  0100               	movlb	0	; () banked
  2219  000CA4  5173               	movf	fputc@fp& (0+255),w,b
  2220  000CA6  1174               	iorwf	(fputc@fp+1)& (0+255),w,b
  2221  000CA8  B4D8               	btfsc	status,2,c
  2222  000CAA  D004               	goto	u980
  2223                           
  2224                           ; BSR set to: 0
  2225  000CAC  5173               	movf	fputc@fp& (0+255),w,b
  2226  000CAE  1174               	iorwf	(fputc@fp+1)& (0+255),w,b
  2227  000CB0  A4D8               	btfss	status,2,c
  2228  000CB2  D004               	goto	l1575
  2229  000CB4                     u980:
  2230                           
  2231                           ; BSR set to: 0
  2232  000CB4  5171               	movf	fputc@c& (0+255),w,b
  2233  000CB6  ECF4  F008         	call	_putch
  2234  000CBA  0012               	return	
  2235  000CBC                     l1575:
  2236                           
  2237                           ; BSR set to: 0
  2238  000CBC  EE20 F004          	lfsr	2,4
  2239  000CC0  5173               	movf	fputc@fp& (0+255),w,b
  2240  000CC2  26D9               	addwf	fsr2l,f,c
  2241  000CC4  5174               	movf	(fputc@fp+1)& (0+255),w,b
  2242  000CC6  22DA               	addwfc	fsr2h,f,c
  2243  000CC8  50DE               	movf	postinc2,w,c
  2244  000CCA  10DE               	iorwf	postinc2,w,c
  2245  000CCC  B4D8               	btfsc	status,2,c
  2246  000CCE  D016               	goto	u1000
  2247                           
  2248                           ; BSR set to: 0
  2249  000CD0  EE20 F004          	lfsr	2,4
  2250  000CD4  5173               	movf	fputc@fp& (0+255),w,b
  2251  000CD6  26D9               	addwf	fsr2l,f,c
  2252  000CD8  5174               	movf	(fputc@fp+1)& (0+255),w,b
  2253  000CDA  22DA               	addwfc	fsr2h,f,c
  2254  000CDC  EE10 F002          	lfsr	1,2
  2255  000CE0  5173               	movf	fputc@fp& (0+255),w,b
  2256  000CE2  26E1               	addwf	fsr1l,f,c
  2257  000CE4  5174               	movf	(fputc@fp+1)& (0+255),w,b
  2258  000CE6  22E2               	addwfc	fsr1h,f,c
  2259  000CE8  50DE               	movf	postinc2,w,c
  2260  000CEA  5CE6               	subwf	postinc1,w,c
  2261  000CEC  50E6               	movf	postinc1,w,c
  2262  000CEE  0A80               	xorlw	128
  2263  000CF0  6F79               	movwf	(??_fputc+4)& (0+255),b
  2264  000CF2  50DE               	movf	postinc2,w,c
  2265  000CF4  0A80               	xorlw	128
  2266  000CF6  5979               	subwfb	(??_fputc+4)& (0+255),w,b
  2267  000CF8  B0D8               	btfsc	status,0,c
  2268  000CFA  0012               	return	
  2269  000CFC                     u1000:
  2270                           
  2271                           ; BSR set to: 0
  2272  000CFC  EE20 F002          	lfsr	2,2
  2273  000D00  5173               	movf	fputc@fp& (0+255),w,b
  2274  000D02  26D9               	addwf	fsr2l,f,c
  2275  000D04  5174               	movf	(fputc@fp+1)& (0+255),w,b
  2276  000D06  22DA               	addwfc	fsr2h,f,c
  2277  000D08  2ADE               	incf	postinc2,f,c
  2278  000D0A  0E00               	movlw	0
  2279  000D0C  22DD               	addwfc	postdec2,f,c
  2280  000D0E  0012               	return		;funcret
  2281  000D10                     __end_of_fputc:
  2282                           	opt callstack 0
  2283                           
  2284 ;; *************** function _putch *****************
  2285 ;; Defined at:
  2286 ;;		line 212 in file "user.c"
  2287 ;; Parameters:    Size  Location     Type
  2288 ;;  byte            1    wreg     unsigned char 
  2289 ;; Auto vars:     Size  Location     Type
  2290 ;;  byte            1   16[BANK0 ] unsigned char 
  2291 ;; Return value:  Size  Location     Type
  2292 ;;                  1    wreg      void 
  2293 ;; Registers used:
  2294 ;;		wreg, status,2
  2295 ;; Tracked objects:
  2296 ;;		On entry : 0/0
  2297 ;;		On exit  : 0/0
  2298 ;;		Unchanged: 0/0
  2299 ;; Data sizes:     COMRAM   BANK0   BANK1   BANK2
  2300 ;;      Params:         0       0       0       0
  2301 ;;      Locals:         0       1       0       0
  2302 ;;      Temps:          0       0       0       0
  2303 ;;      Totals:         0       1       0       0
  2304 ;;Total ram usage:        1 bytes
  2305 ;; Hardware stack levels used:    1
  2306 ;; Hardware stack levels required when called:   10
  2307 ;; This function calls:
  2308 ;;		Nothing
  2309 ;; This function is called by:
  2310 ;;		_fputc
  2311 ;; This function uses a non-reentrant model
  2312 ;;
  2313                           
  2314                           	psect	text12
  2315  0011E8                     __ptext12:
  2316                           	opt callstack 0
  2317  0011E8                     _putch:
  2318                           	opt callstack 13
  2319                           
  2320                           ;incstack = 0
  2321                           ;putch@byte stored from wreg
  2322  0011E8  0100               	movlb	0	; () banked
  2323  0011EA  6F70               	movwf	putch@byte& (0+255),b
  2324                           
  2325                           ;user.c: 213:     TXSTA = 0x26;
  2326  0011EC  0E26               	movlw	38
  2327  0011EE  6EAC               	movwf	4012,c	;volatile
  2328                           
  2329                           ;user.c: 214:     RCSTA1bits.SPEN = 1;
  2330  0011F0  8EAB               	bsf	4011,7,c	;volatile
  2331  0011F2                     l184:
  2332  0011F2  A89E               	btfss	3998,4,c	;volatile
  2333  0011F4  D7FE               	goto	l184
  2334                           
  2335                           ;user.c: 216:     TXREG = byte;
  2336  0011F6  C070  FFAD         	movff	putch@byte,4013	;volatile
  2337  0011FA  0012               	return		;funcret
  2338  0011FC                     __end_of_putch:
  2339                           	opt callstack 0
  2340                           
  2341 ;; *************** function _isupper *****************
  2342 ;; Defined at:
  2343 ;;		line 5 in file "/opt/microchip/xc8/v2.05/pic/sources/c99/common/isupper.c"
  2344 ;; Parameters:    Size  Location     Type
  2345 ;;  c               2   16[BANK0 ] int 
  2346 ;; Auto vars:     Size  Location     Type
  2347 ;;		None
  2348 ;; Return value:  Size  Location     Type
  2349 ;;                  2   16[BANK0 ] int 
  2350 ;; Registers used:
  2351 ;;		wreg, status,2, status,0
  2352 ;; Tracked objects:
  2353 ;;		On entry : 0/0
  2354 ;;		On exit  : 0/0
  2355 ;;		Unchanged: 0/0
  2356 ;; Data sizes:     COMRAM   BANK0   BANK1   BANK2
  2357 ;;      Params:         0       2       0       0
  2358 ;;      Locals:         0       0       0       0
  2359 ;;      Temps:          0       4       0       0
  2360 ;;      Totals:         0       6       0       0
  2361 ;;Total ram usage:        6 bytes
  2362 ;; Hardware stack levels used:    1
  2363 ;; Hardware stack levels required when called:   10
  2364 ;; This function calls:
  2365 ;;		Nothing
  2366 ;; This function is called by:
  2367 ;;		_xtoa
  2368 ;; This function uses a non-reentrant model
  2369 ;;
  2370                           
  2371                           	psect	text13
  2372  001018                     __ptext13:
  2373                           	opt callstack 0
  2374  001018                     _isupper:
  2375                           	opt callstack 16
  2376                           
  2377                           ;incstack = 0
  2378  001018  0EBF               	movlw	191
  2379  00101A  0100               	movlb	0	; () banked
  2380  00101C  6F72               	movwf	??_isupper& (0+255),b
  2381  00101E  0EFF               	movlw	255
  2382  001020  6F73               	movwf	(??_isupper+1)& (0+255),b
  2383  001022  C070  F074         	movff	isupper@c,??_isupper+2
  2384  001026  C071  F075         	movff	isupper@c+1,??_isupper+3
  2385  00102A  5172               	movf	??_isupper& (0+255),w,b
  2386  00102C  2774               	addwf	(??_isupper+2)& (0+255),f,b
  2387  00102E  5173               	movf	(??_isupper+1)& (0+255),w,b
  2388  001030  2375               	addwfc	(??_isupper+3)& (0+255),f,b
  2389  001032  5175               	movf	(??_isupper+3)& (0+255),w,b
  2390  001034  E106               	bnz	u1170
  2391  001036  0E1A               	movlw	26
  2392  001038  5D74               	subwf	(??_isupper+2)& (0+255),w,b
  2393  00103A  B0D8               	btfsc	status,0,c
  2394  00103C  D002               	goto	u1170
  2395  00103E  0E01               	movlw	1
  2396  001040  D001               	goto	u1180
  2397  001042                     u1170:
  2398  001042  0E00               	movlw	0
  2399  001044                     u1180:
  2400  001044  6F70               	movwf	?_isupper& (0+255),b
  2401  001046  6B71               	clrf	(?_isupper+1)& (0+255),b
  2402                           
  2403                           ; BSR set to: 0
  2404  001048  0012               	return		;funcret
  2405  00104A                     __end_of_isupper:
  2406                           	opt callstack 0
  2407                           
  2408 ;; *************** function _isalpha *****************
  2409 ;; Defined at:
  2410 ;;		line 5 in file "/opt/microchip/xc8/v2.05/pic/sources/c99/common/isalpha.c"
  2411 ;; Parameters:    Size  Location     Type
  2412 ;;  c               2   16[BANK0 ] int 
  2413 ;; Auto vars:     Size  Location     Type
  2414 ;;		None
  2415 ;; Return value:  Size  Location     Type
  2416 ;;                  2   16[BANK0 ] int 
  2417 ;; Registers used:
  2418 ;;		wreg, status,2, status,0
  2419 ;; Tracked objects:
  2420 ;;		On entry : 0/0
  2421 ;;		On exit  : 0/0
  2422 ;;		Unchanged: 0/0
  2423 ;; Data sizes:     COMRAM   BANK0   BANK1   BANK2
  2424 ;;      Params:         0       2       0       0
  2425 ;;      Locals:         0       0       0       0
  2426 ;;      Temps:          0       4       0       0
  2427 ;;      Totals:         0       6       0       0
  2428 ;;Total ram usage:        6 bytes
  2429 ;; Hardware stack levels used:    1
  2430 ;; Hardware stack levels required when called:   10
  2431 ;; This function calls:
  2432 ;;		Nothing
  2433 ;; This function is called by:
  2434 ;;		_xtoa
  2435 ;; This function uses a non-reentrant model
  2436 ;;
  2437                           
  2438                           	psect	text14
  2439  000F7C                     __ptext14:
  2440                           	opt callstack 0
  2441  000F7C                     _isalpha:
  2442                           	opt callstack 16
  2443                           
  2444                           ; BSR set to: 0
  2445                           ;incstack = 0
  2446  000F7C  0E9F               	movlw	159
  2447  000F7E  0100               	movlb	0	; () banked
  2448  000F80  6F72               	movwf	??_isalpha& (0+255),b
  2449  000F82  0EFF               	movlw	255
  2450  000F84  6F73               	movwf	(??_isalpha+1)& (0+255),b
  2451  000F86  0E20               	movlw	32
  2452  000F88  1170               	iorwf	isalpha@c& (0+255),w,b
  2453  000F8A  6F74               	movwf	(??_isalpha+2)& (0+255),b
  2454  000F8C  0E00               	movlw	0
  2455  000F8E  1171               	iorwf	(isalpha@c+1)& (0+255),w,b
  2456  000F90  6F75               	movwf	(??_isalpha+3)& (0+255),b
  2457  000F92  5172               	movf	??_isalpha& (0+255),w,b
  2458  000F94  2774               	addwf	(??_isalpha+2)& (0+255),f,b
  2459  000F96  5173               	movf	(??_isalpha+1)& (0+255),w,b
  2460  000F98  2375               	addwfc	(??_isalpha+3)& (0+255),f,b
  2461  000F9A  5175               	movf	(??_isalpha+3)& (0+255),w,b
  2462  000F9C  E106               	bnz	u1190
  2463  000F9E  0E1A               	movlw	26
  2464  000FA0  5D74               	subwf	(??_isalpha+2)& (0+255),w,b
  2465  000FA2  B0D8               	btfsc	status,0,c
  2466  000FA4  D002               	goto	u1190
  2467  000FA6  0E01               	movlw	1
  2468  000FA8  D001               	goto	u1200
  2469  000FAA                     u1190:
  2470  000FAA  0E00               	movlw	0
  2471  000FAC                     u1200:
  2472  000FAC  6F70               	movwf	?_isalpha& (0+255),b
  2473  000FAE  6B71               	clrf	(?_isalpha+1)& (0+255),b
  2474                           
  2475                           ; BSR set to: 0
  2476  000FB0  0012               	return		;funcret
  2477  000FB2                     __end_of_isalpha:
  2478                           	opt callstack 0
  2479                           
  2480 ;; *************** function _InitApp *****************
  2481 ;; Defined at:
  2482 ;;		line 31 in file "user.c"
  2483 ;; Parameters:    Size  Location     Type
  2484 ;;		None
  2485 ;; Auto vars:     Size  Location     Type
  2486 ;;		None
  2487 ;; Return value:  Size  Location     Type
  2488 ;;                  1    wreg      void 
  2489 ;; Registers used:
  2490 ;;		wreg, status,2, cstack
  2491 ;; Tracked objects:
  2492 ;;		On entry : 0/0
  2493 ;;		On exit  : 0/0
  2494 ;;		Unchanged: 0/0
  2495 ;; Data sizes:     COMRAM   BANK0   BANK1   BANK2
  2496 ;;      Params:         0       0       0       0
  2497 ;;      Locals:         0       0       0       0
  2498 ;;      Temps:          0       0       0       0
  2499 ;;      Totals:         0       0       0       0
  2500 ;;Total ram usage:        0 bytes
  2501 ;; Hardware stack levels used:    1
  2502 ;; Hardware stack levels required when called:   11
  2503 ;; This function calls:
  2504 ;;		_init_timer
  2505 ;;		_init_usart
  2506 ;; This function is called by:
  2507 ;;		_main
  2508 ;; This function uses a non-reentrant model
  2509 ;;
  2510                           
  2511                           	psect	text15
  2512  00120E                     __ptext15:
  2513                           	opt callstack 0
  2514  00120E                     _InitApp:
  2515                           	opt callstack 19
  2516                           
  2517                           ;user.c: 36:     TRISDbits.RD7 = 0;
  2518                           
  2519                           ; BSR set to: 0
  2520                           ;incstack = 0
  2521  00120E  9E95               	bcf	3989,7,c	;volatile
  2522                           
  2523                           ;user.c: 37:     TRISDbits.RD6 = 0;
  2524  001210  9C95               	bcf	3989,6,c	;volatile
  2525                           
  2526                           ;user.c: 40:     init_usart();
  2527  001212  ECE7  F008         	call	_init_usart	;wreg free
  2528                           
  2529                           ;user.c: 41:     init_timer();
  2530  001216  ECC2  F008         	call	_init_timer	;wreg free
  2531  00121A  0012               	return		;funcret
  2532  00121C                     __end_of_InitApp:
  2533                           	opt callstack 0
  2534                           
  2535 ;; *************** function _init_usart *****************
  2536 ;; Defined at:
  2537 ;;		line 48 in file "user.c"
  2538 ;; Parameters:    Size  Location     Type
  2539 ;;		None
  2540 ;; Auto vars:     Size  Location     Type
  2541 ;;		None
  2542 ;; Return value:  Size  Location     Type
  2543 ;;                  1    wreg      void 
  2544 ;; Registers used:
  2545 ;;		wreg, status,2
  2546 ;; Tracked objects:
  2547 ;;		On entry : 0/0
  2548 ;;		On exit  : 0/0
  2549 ;;		Unchanged: 0/0
  2550 ;; Data sizes:     COMRAM   BANK0   BANK1   BANK2
  2551 ;;      Params:         0       0       0       0
  2552 ;;      Locals:         0       0       0       0
  2553 ;;      Temps:          0       0       0       0
  2554 ;;      Totals:         0       0       0       0
  2555 ;;Total ram usage:        0 bytes
  2556 ;; Hardware stack levels used:    1
  2557 ;; Hardware stack levels required when called:   10
  2558 ;; This function calls:
  2559 ;;		Nothing
  2560 ;; This function is called by:
  2561 ;;		_InitApp
  2562 ;; This function uses a non-reentrant model
  2563 ;;
  2564                           
  2565                           	psect	text16
  2566  0011CE                     __ptext16:
  2567                           	opt callstack 0
  2568  0011CE                     _init_usart:
  2569                           	opt callstack 19
  2570                           
  2571                           ;user.c: 51:     TRISCbits.RC6 = 0;
  2572                           
  2573                           ;incstack = 0
  2574  0011CE  9C94               	bcf	3988,6,c	;volatile
  2575                           
  2576                           ;user.c: 52:     TRISCbits.RC7 = 1;
  2577  0011D0  8E94               	bsf	3988,7,c	;volatile
  2578                           
  2579                           ;user.c: 54:     TXSTA1bits.SYNC = 0;
  2580  0011D2  98AC               	bcf	4012,4,c	;volatile
  2581                           
  2582                           ;user.c: 55:     TXSTA1bits.TX9 = 0;
  2583  0011D4  9CAC               	bcf	4012,6,c	;volatile
  2584                           
  2585                           ;user.c: 56:     TXSTA1bits.TXEN = 1;
  2586  0011D6  8AAC               	bsf	4012,5,c	;volatile
  2587                           
  2588                           ;user.c: 58:     RCSTA1bits.RX9 = 0;
  2589  0011D8  9CAB               	bcf	4011,6,c	;volatile
  2590                           
  2591                           ;user.c: 59:     RCSTA1bits.CREN = 1;
  2592  0011DA  88AB               	bsf	4011,4,c	;volatile
  2593                           
  2594                           ;user.c: 60:     RCSTA1bits.SPEN = 1;
  2595  0011DC  8EAB               	bsf	4011,7,c	;volatile
  2596                           
  2597                           ;user.c: 63:     BAUDCONbits.BRG16 = 0;
  2598  0011DE  96AA               	bcf	4010,3,c	;volatile
  2599                           
  2600                           ;user.c: 64:     TXSTA1bits.BRGH = 0;
  2601  0011E0  94AC               	bcf	4012,2,c	;volatile
  2602                           
  2603                           ;user.c: 65:     SPBRG1 = 129;
  2604  0011E2  0E81               	movlw	129
  2605  0011E4  6EAF               	movwf	4015,c	;volatile
  2606  0011E6  0012               	return		;funcret
  2607  0011E8                     __end_of_init_usart:
  2608                           	opt callstack 0
  2609                           
  2610 ;; *************** function _init_timer *****************
  2611 ;; Defined at:
  2612 ;;		line 73 in file "user.c"
  2613 ;; Parameters:    Size  Location     Type
  2614 ;;		None
  2615 ;; Auto vars:     Size  Location     Type
  2616 ;;		None
  2617 ;; Return value:  Size  Location     Type
  2618 ;;                  1    wreg      void 
  2619 ;; Registers used:
  2620 ;;		wreg, status,2
  2621 ;; Tracked objects:
  2622 ;;		On entry : 0/0
  2623 ;;		On exit  : 0/0
  2624 ;;		Unchanged: 0/0
  2625 ;; Data sizes:     COMRAM   BANK0   BANK1   BANK2
  2626 ;;      Params:         0       0       0       0
  2627 ;;      Locals:         0       0       0       0
  2628 ;;      Temps:          0       0       0       0
  2629 ;;      Totals:         0       0       0       0
  2630 ;;Total ram usage:        0 bytes
  2631 ;; Hardware stack levels used:    1
  2632 ;; Hardware stack levels required when called:   10
  2633 ;; This function calls:
  2634 ;;		Nothing
  2635 ;; This function is called by:
  2636 ;;		_InitApp
  2637 ;; This function uses a non-reentrant model
  2638 ;;
  2639                           
  2640                           	psect	text17
  2641  001184                     __ptext17:
  2642                           	opt callstack 0
  2643  001184                     _init_timer:
  2644                           	opt callstack 19
  2645                           
  2646                           ;user.c: 76:     T0CONbits.TMR0ON = 0;
  2647                           
  2648                           ;incstack = 0
  2649  001184  9ED5               	bcf	4053,7,c	;volatile
  2650                           
  2651                           ;user.c: 77:     T0CONbits.T016BIT = 0;
  2652  001186  9CD5               	bcf	4053,6,c	;volatile
  2653                           
  2654                           ;user.c: 78:     T0CONbits.T0CS = 0;
  2655  001188  9AD5               	bcf	4053,5,c	;volatile
  2656                           
  2657                           ;user.c: 79:     T0CONbits.PSA = 0;
  2658  00118A  96D5               	bcf	4053,3,c	;volatile
  2659                           
  2660                           ;user.c: 80:     T0CONbits.T0PS = 0b011;
  2661  00118C  50D5               	movf	4053,w,c	;volatile
  2662  00118E  0BF8               	andlw	-8
  2663  001190  0903               	iorlw	3
  2664  001192  6ED5               	movwf	4053,c	;volatile
  2665                           
  2666                           ;user.c: 81:     TMR0 = 0;
  2667  001194  0E00               	movlw	0
  2668  001196  6ED7               	movwf	4055,c	;volatile
  2669  001198  0E00               	movlw	0
  2670  00119A  6ED6               	movwf	4054,c	;volatile
  2671                           
  2672                           ;user.c: 82:     INTCONbits.T0IF = 0;
  2673  00119C  94F2               	bcf	4082,2,c	;volatile
  2674                           
  2675                           ;user.c: 83:     INTCONbits.T0IE = 1;
  2676  00119E  8AF2               	bsf	4082,5,c	;volatile
  2677                           
  2678                           ;user.c: 84:     RCONbits.IPEN = 0;
  2679  0011A0  9ED0               	bcf	4048,7,c	;volatile
  2680                           
  2681                           ;user.c: 85:     INTCONbits.PEIE = 1;
  2682  0011A2  8CF2               	bsf	4082,6,c	;volatile
  2683                           
  2684                           ;user.c: 86:     INTCONbits.GIE = 1;
  2685  0011A4  8EF2               	bsf	4082,7,c	;volatile
  2686                           
  2687                           ;user.c: 87:     T0CONbits.TMR0ON = 1;
  2688  0011A6  8ED5               	bsf	4053,7,c	;volatile
  2689  0011A8  0012               	return		;funcret
  2690  0011AA                     __end_of_init_timer:
  2691                           	opt callstack 0
  2692                           
  2693 ;; *************** function _ConfigureOscillator *****************
  2694 ;; Defined at:
  2695 ;;		line 24 in file "system.c"
  2696 ;; Parameters:    Size  Location     Type
  2697 ;;		None
  2698 ;; Auto vars:     Size  Location     Type
  2699 ;;		None
  2700 ;; Return value:  Size  Location     Type
  2701 ;;                  1    wreg      void 
  2702 ;; Registers used:
  2703 ;;		None
  2704 ;; Tracked objects:
  2705 ;;		On entry : 0/0
  2706 ;;		On exit  : 0/0
  2707 ;;		Unchanged: 0/0
  2708 ;; Data sizes:     COMRAM   BANK0   BANK1   BANK2
  2709 ;;      Params:         0       0       0       0
  2710 ;;      Locals:         0       0       0       0
  2711 ;;      Temps:          0       0       0       0
  2712 ;;      Totals:         0       0       0       0
  2713 ;;Total ram usage:        0 bytes
  2714 ;; Hardware stack levels used:    1
  2715 ;; Hardware stack levels required when called:   10
  2716 ;; This function calls:
  2717 ;;		Nothing
  2718 ;; This function is called by:
  2719 ;;		_main
  2720 ;; This function uses a non-reentrant model
  2721 ;;
  2722                           
  2723                           	psect	text18
  2724  00121C                     __ptext18:
  2725                           	opt callstack 0
  2726  00121C                     _ConfigureOscillator:
  2727                           	opt callstack 20
  2728                           
  2729                           ;incstack = 0
  2730  00121C  0012               	return		;funcret
  2731  00121E                     __end_of_ConfigureOscillator:
  2732                           	opt callstack 0
  2733                           
  2734 ;; *************** function _low_isr *****************
  2735 ;; Defined at:
  2736 ;;		line 97 in file "interrupts.c"
  2737 ;; Parameters:    Size  Location     Type
  2738 ;;		None
  2739 ;; Auto vars:     Size  Location     Type
  2740 ;;		None
  2741 ;; Return value:  Size  Location     Type
  2742 ;;                  1    wreg      void 
  2743 ;; Registers used:
  2744 ;;		None
  2745 ;; Tracked objects:
  2746 ;;		On entry : 0/0
  2747 ;;		On exit  : 0/0
  2748 ;;		Unchanged: 0/0
  2749 ;; Data sizes:     COMRAM   BANK0   BANK1   BANK2
  2750 ;;      Params:         0       0       0       0
  2751 ;;      Locals:         0       0       0       0
  2752 ;;      Temps:          0       1       0       0
  2753 ;;      Totals:         0       1       0       0
  2754 ;;Total ram usage:        1 bytes
  2755 ;; Hardware stack levels used:    1
  2756 ;; Hardware stack levels required when called:    9
  2757 ;; This function calls:
  2758 ;;		Nothing
  2759 ;; This function is called by:
  2760 ;;		Interrupt level 1
  2761 ;; This function uses a non-reentrant model
  2762 ;;
  2763                           
  2764                           	psect	intcodelo
  2765  000018                     __pintcodelo:
  2766                           	opt callstack 0
  2767  000018                     _low_isr:
  2768                           	opt callstack 13
  2769                           
  2770                           ;incstack = 0
  2771  000018  805F               	bsf	btemp,0,c	;set compiler interrupt flag (level 1)
  2772  00001A  CFE0 F06F          	movff	bsr,??_low_isr
  2773  00001E  C06F  FFE0         	movff	??_low_isr,bsr
  2774  000022  905F               	bcf	btemp,0,c	;clear compiler interrupt flag (level 1)
  2775  000024  0010               	retfie	
  2776  000026                     __end_of_low_isr:
  2777                           	opt callstack 0
  2778                           
  2779 ;; *************** function _high_isr *****************
  2780 ;; Defined at:
  2781 ;;		line 28 in file "interrupts.c"
  2782 ;; Parameters:    Size  Location     Type
  2783 ;;		None
  2784 ;; Auto vars:     Size  Location     Type
  2785 ;;		None
  2786 ;; Return value:  Size  Location     Type
  2787 ;;                  1    wreg      void 
  2788 ;; Registers used:
  2789 ;;		wreg, fsr1l, fsr1h, fsr2l, fsr2h, status,2, status,0, tblptrl, tblptrh, tblptru, cstack
  2790 ;; Tracked objects:
  2791 ;;		On entry : 0/0
  2792 ;;		On exit  : 0/0
  2793 ;;		Unchanged: 0/0
  2794 ;; Data sizes:     COMRAM   BANK0   BANK1   BANK2
  2795 ;;      Params:         0       0       0       0
  2796 ;;      Locals:         0       0       0       0
  2797 ;;      Temps:          0       9       0       0
  2798 ;;      Totals:         0       9       0       0
  2799 ;;Total ram usage:        9 bytes
  2800 ;; Hardware stack levels used:    1
  2801 ;; Hardware stack levels required when called:    8
  2802 ;; This function calls:
  2803 ;;		i2_printf
  2804 ;; This function is called by:
  2805 ;;		Interrupt level 2
  2806 ;; This function uses a non-reentrant model
  2807 ;;
  2808                           
  2809                           	psect	intcode
  2810  000008                     __pintcode:
  2811                           	opt callstack 0
  2812  000008                     _high_isr:
  2813                           	opt callstack 13
  2814                           
  2815                           ;incstack = 0
  2816  000008  825F               	bsf	btemp,1,c	;set compiler interrupt flag (level 2)
  2817  00000A  EF63  F005         	goto	int_func
  2818                           
  2819                           	psect	intcode_body
  2820  000AC6                     __pintcode_body:
  2821                           	opt callstack 13
  2822  000AC6                     int_func:
  2823                           	opt callstack 13
  2824  000AC6  CFE1 F067          	movff	fsr1l,??_high_isr+1
  2825  000ACA  CFE2 F068          	movff	fsr1h,??_high_isr+2
  2826  000ACE  CFD9 F069          	movff	fsr2l,??_high_isr+3
  2827  000AD2  CFDA F06A          	movff	fsr2h,??_high_isr+4
  2828  000AD6  CFF6 F06B          	movff	tblptrl,??_high_isr+5
  2829  000ADA  CFF7 F06C          	movff	tblptrh,??_high_isr+6
  2830  000ADE  CFF8 F06D          	movff	tblptru,??_high_isr+7
  2831  000AE2  CFF5 F06E          	movff	tablat,??_high_isr+8
  2832                           
  2833                           ;interrupts.c: 63:     if(INTCONbits.T0IF == 1)
  2834  000AE6  A4F2               	btfss	4082,2,c	;volatile
  2835  000AE8  D02E               	goto	i2l21
  2836                           
  2837                           ;interrupts.c: 64:     {;interrupts.c: 65:         timer0_var++;
  2838  000AEA  0100               	movlb	0	; () banked
  2839  000AEC  4BE0               	infsnz	_timer0_var& (0+255),f,b
  2840  000AEE  2BE1               	incf	(_timer0_var+1)& (0+255),f,b
  2841                           
  2842                           ; BSR set to: 0
  2843                           ;interrupts.c: 66:         printf("timer!\r\n");
  2844  000AF0  0E17               	movlw	low STR_1
  2845  000AF2  6F60               	movwf	i2printf@fmt& (0+255),b
  2846  000AF4  0E03               	movlw	high STR_1
  2847  000AF6  6F61               	movwf	(i2printf@fmt+1)& (0+255),b
  2848  000AF8  EC25  F008         	call	i2_printf	;wreg free
  2849                           
  2850                           ;interrupts.c: 67:         TMR0 = 0;
  2851  000AFC  0E00               	movlw	0
  2852  000AFE  6ED7               	movwf	4055,c	;volatile
  2853  000B00  0E00               	movlw	0
  2854  000B02  6ED6               	movwf	4054,c	;volatile
  2855                           
  2856                           ;interrupts.c: 71:         if (timer0_var == 0)
  2857  000B04  0100               	movlb	0	; () banked
  2858  000B06  51E0               	movf	_timer0_var& (0+255),w,b
  2859  000B08  11E1               	iorwf	(_timer0_var+1)& (0+255),w,b
  2860  000B0A  B4D8               	btfsc	status,2,c
  2861  000B0C  D01B               	goto	i2l2033
  2862                           
  2863                           ; BSR set to: 0
  2864  000B0E  05E0               	decf	_timer0_var& (0+255),w,b
  2865  000B10  11E1               	iorwf	(_timer0_var+1)& (0+255),w,b
  2866  000B12  B4D8               	btfsc	status,2,c
  2867  000B14  D017               	goto	i2l2033
  2868                           
  2869                           ; BSR set to: 0
  2870  000B16  0E02               	movlw	2
  2871  000B18  19E0               	xorwf	_timer0_var& (0+255),w,b
  2872  000B1A  11E1               	iorwf	(_timer0_var+1)& (0+255),w,b
  2873  000B1C  A4D8               	btfss	status,2,c
  2874  000B1E  D012               	goto	i2l2033
  2875                           
  2876                           ; BSR set to: 0
  2877                           ;interrupts.c: 82:         {;interrupts.c: 83:             timer0_var = 0;
  2878  000B20  0E00               	movlw	0
  2879  000B22  6FE1               	movwf	(_timer0_var+1)& (0+255),b
  2880  000B24  0E00               	movlw	0
  2881  000B26  6FE0               	movwf	_timer0_var& (0+255),b
  2882                           
  2883                           ; BSR set to: 0
  2884                           ;interrupts.c: 84:             PORTDbits.RD7 = ~PORTDbits.RD7;
  2885  000B28  AE83               	btfss	3971,7,c	;volatile
  2886  000B2A  D002               	goto	i2u183_40
  2887  000B2C  0E01               	movlw	1
  2888  000B2E  D001               	goto	i2u183_46
  2889  000B30                     i2u183_40:
  2890  000B30  0E00               	movlw	0
  2891  000B32                     i2u183_46:
  2892  000B32  0AFF               	xorlw	255
  2893  000B34  6F66               	movwf	??_high_isr& (0+255),b
  2894  000B36  3366               	rrcf	??_high_isr& (0+255),f,b
  2895  000B38  3366               	rrcf	??_high_isr& (0+255),f,b
  2896  000B3A  5083               	movf	3971,w,c	;volatile
  2897  000B3C  1966               	xorwf	??_high_isr& (0+255),w,b
  2898  000B3E  0B7F               	andlw	-129
  2899  000B40  1966               	xorwf	??_high_isr& (0+255),w,b
  2900  000B42  6E83               	movwf	3971,c	;volatile
  2901  000B44                     i2l2033:
  2902                           
  2903                           ; BSR set to: 0
  2904                           ;interrupts.c: 89:         INTCONbits.T0IF = 0;
  2905  000B44  94F2               	bcf	4082,2,c	;volatile
  2906  000B46                     i2l21:
  2907  000B46  C06E  FFF5         	movff	??_high_isr+8,tablat
  2908  000B4A  C06D  FFF8         	movff	??_high_isr+7,tblptru
  2909  000B4E  C06C  FFF7         	movff	??_high_isr+6,tblptrh
  2910  000B52  C06B  FFF6         	movff	??_high_isr+5,tblptrl
  2911  000B56  C06A  FFDA         	movff	??_high_isr+4,fsr2h
  2912  000B5A  C069  FFD9         	movff	??_high_isr+3,fsr2l
  2913  000B5E  C068  FFE2         	movff	??_high_isr+2,fsr1h
  2914  000B62  C067  FFE1         	movff	??_high_isr+1,fsr1l
  2915  000B66  925F               	bcf	btemp,1,c	;clear compiler interrupt flag (level 2)
  2916  000B68  0011               	retfie		f
  2917  000B6A                     __end_of_high_isr:
  2918                           	opt callstack 0
  2919                           
  2920 ;; *************** function i2_printf *****************
  2921 ;; Defined at:
  2922 ;;		line 5 in file "/opt/microchip/xc8/v2.05/pic/sources/c99/common/printf.c"
  2923 ;; Parameters:    Size  Location     Type
  2924 ;;  fmt             2    0[BANK0 ] PTR const unsigned char 
  2925 ;;		 -> STR_3(10), STR_2(12), STR_1(9), 
  2926 ;; Auto vars:     Size  Location     Type
  2927 ;;  printf          2    4[BANK0 ] PTR void [1]
  2928 ;;		 -> ?i2_printf(2), ?_printf(2), 
  2929 ;;  printf          2    2[BANK0 ] int 
  2930 ;; Return value:  Size  Location     Type
  2931 ;;                  2    0[BANK0 ] int 
  2932 ;; Registers used:
  2933 ;;		wreg, fsr1l, fsr1h, fsr2l, fsr2h, status,2, status,0, tblptrl, tblptrh, tblptru, cstack
  2934 ;; Tracked objects:
  2935 ;;		On entry : 0/0
  2936 ;;		On exit  : 0/0
  2937 ;;		Unchanged: 0/0
  2938 ;; Data sizes:     COMRAM   BANK0   BANK1   BANK2
  2939 ;;      Params:         0       2       0       0
  2940 ;;      Locals:         0       4       0       0
  2941 ;;      Temps:          0       0       0       0
  2942 ;;      Totals:         0       6       0       0
  2943 ;;Total ram usage:        6 bytes
  2944 ;; Hardware stack levels used:    1
  2945 ;; Hardware stack levels required when called:    7
  2946 ;; This function calls:
  2947 ;;		i2_vfprintf
  2948 ;; This function is called by:
  2949 ;;		_high_isr
  2950 ;; This function uses a non-reentrant model
  2951 ;;
  2952                           
  2953                           	psect	text21
  2954  00104A                     __ptext21:
  2955                           	opt callstack 0
  2956  00104A                     i2_printf:
  2957                           	opt callstack 13
  2958                           
  2959                           ;incstack = 0
  2960  00104A  0E62               	movlw	low (?i2_printf+2)
  2961  00104C  0100               	movlb	0	; () banked
  2962  00104E  6F64               	movwf	i2printf@ap& (0+255),b
  2963  001050  0E00               	movlw	high (?i2_printf+2)
  2964  001052  6F65               	movwf	(i2printf@ap+1)& (0+255),b
  2965                           
  2966                           ; BSR set to: 0
  2967  001054  0E00               	movlw	0
  2968  001056  6E57               	movwf	i2vfprintf@fp,c
  2969  001058  0E00               	movlw	0
  2970  00105A  6E58               	movwf	i2vfprintf@fp+1,c
  2971  00105C  C060  F059         	movff	i2printf@fmt,i2vfprintf@fmt
  2972  001060  C061  F05A         	movff	i2printf@fmt+1,i2vfprintf@fmt+1
  2973  001064  0E64               	movlw	low i2printf@ap
  2974  001066  6E5B               	movwf	i2vfprintf@ap,c
  2975  001068  0E00               	movlw	high i2printf@ap
  2976  00106A  6E5C               	movwf	i2vfprintf@ap+1,c
  2977  00106C  ECE9  F006         	call	i2_vfprintf	;wreg free
  2978  001070  C057  F062         	movff	?i2_vfprintf,i2printf@ret
  2979  001074  C058  F063         	movff	?i2_vfprintf+1,i2printf@ret+1
  2980  001078  0012               	return		;funcret
  2981  00107A                     __end_ofi2_printf:
  2982                           	opt callstack 0
  2983                           
  2984 ;; *************** function i2_vfprintf *****************
  2985 ;; Defined at:
  2986 ;;		line 1368 in file "/opt/microchip/xc8/v2.05/pic/sources/c99/common/doprnt.c"
  2987 ;; Parameters:    Size  Location     Type
  2988 ;;  fp              2   86[COMRAM] PTR struct _IO_FILE
  2989 ;;		 -> NULL(0), 
  2990 ;;  fmt             2   88[COMRAM] PTR const unsigned char 
  2991 ;;		 -> STR_3(10), STR_2(12), STR_1(9), 
  2992 ;;  ap              2   90[COMRAM] PTR PTR void 
  2993 ;;		 -> i2printf@ap(2), printf@ap(2), 
  2994 ;; Auto vars:     Size  Location     Type
  2995 ;;  vfprintf        2   92[COMRAM] PTR unsigned char 
  2996 ;;		 -> STR_3(10), STR_2(12), STR_1(9), 
  2997 ;; Return value:  Size  Location     Type
  2998 ;;                  2   86[COMRAM] int 
  2999 ;; Registers used:
  3000 ;;		wreg, fsr1l, fsr1h, fsr2l, fsr2h, status,2, status,0, tblptrl, tblptrh, tblptru, cstack
  3001 ;; Tracked objects:
  3002 ;;		On entry : 0/0
  3003 ;;		On exit  : 0/0
  3004 ;;		Unchanged: 0/0
  3005 ;; Data sizes:     COMRAM   BANK0   BANK1   BANK2
  3006 ;;      Params:         6       0       0       0
  3007 ;;      Locals:         2       0       0       0
  3008 ;;      Temps:          0       0       0       0
  3009 ;;      Totals:         8       0       0       0
  3010 ;;Total ram usage:        8 bytes
  3011 ;; Hardware stack levels used:    1
  3012 ;; Hardware stack levels required when called:    6
  3013 ;; This function calls:
  3014 ;;		i2_vfpfcnvrt
  3015 ;; This function is called by:
  3016 ;;		i2_printf
  3017 ;; This function uses a non-reentrant model
  3018 ;;
  3019                           
  3020                           	psect	text22
  3021  000DD2                     __ptext22:
  3022                           	opt callstack 0
  3023  000DD2                     i2_vfprintf:
  3024                           	opt callstack 13
  3025                           
  3026                           ;/opt/microchip/xc8/v2.05/pic/sources/c99/common/doprnt.c: 1368: int vfprintf(FILE *fp, 
      +                          const char *fmt, va_list ap);/opt/microchip/xc8/v2.05/pic/sources/c99/common/doprnt.c: 1
      +                          369: {;/opt/microchip/xc8/v2.05/pic/sources/c99/common/doprnt.c: 1371:     char *cfmt;;/
      +                          opt/microchip/xc8/v2.05/pic/sources/c99/common/doprnt.c: 1373:     cfmt = (char *)fmt;
  3027                           
  3028                           ;incstack = 0
  3029  000DD2  C059  F05D         	movff	i2vfprintf@fmt,i2vfprintf@cfmt
  3030  000DD6  C05A  F05E         	movff	i2vfprintf@fmt+1,i2vfprintf@cfmt+1
  3031                           
  3032                           ;/opt/microchip/xc8/v2.05/pic/sources/c99/common/doprnt.c: 1374:     nout = 0;
  3033  000DDA  0E00               	movlw	0
  3034  000DDC  0100               	movlb	0	; () banked
  3035  000DDE  6FD7               	movwf	(_nout+1)& (0+255),b
  3036  000DE0  0E00               	movlw	0
  3037  000DE2  6FD6               	movwf	_nout& (0+255),b
  3038                           
  3039                           ;/opt/microchip/xc8/v2.05/pic/sources/c99/common/doprnt.c: 1375:     while (*cfmt) {
  3040  000DE4  D013               	goto	i2l1979
  3041  000DE6                     i2l1977:
  3042                           
  3043                           ; BSR set to: 0
  3044                           ;/opt/microchip/xc8/v2.05/pic/sources/c99/common/doprnt.c: 1376:         nout += vfpfcnv
      +                          rt(fp, &cfmt, ap);
  3045  000DE6  C057  F044         	movff	i2vfprintf@fp,i2vfpfcnvrt@fp
  3046  000DEA  C058  F045         	movff	i2vfprintf@fp+1,i2vfpfcnvrt@fp+1
  3047  000DEE  0E5D               	movlw	low i2vfprintf@cfmt
  3048  000DF0  6E46               	movwf	i2vfpfcnvrt@fmt,c
  3049  000DF2  0E00               	movlw	high i2vfprintf@cfmt
  3050  000DF4  6E47               	movwf	i2vfpfcnvrt@fmt+1,c
  3051  000DF6  C05B  F048         	movff	i2vfprintf@ap,i2vfpfcnvrt@ap
  3052  000DFA  C05C  F049         	movff	i2vfprintf@ap+1,i2vfpfcnvrt@ap+1
  3053  000DFE  EC94  F004         	call	i2_vfpfcnvrt	;wreg free
  3054  000E02  5044               	movf	?i2_vfpfcnvrt,w,c
  3055  000E04  0100               	movlb	0	; () banked
  3056  000E06  27D6               	addwf	_nout& (0+255),f,b
  3057  000E08  5045               	movf	?i2_vfpfcnvrt+1,w,c
  3058  000E0A  23D7               	addwfc	(_nout+1)& (0+255),f,b
  3059  000E0C                     i2l1979:
  3060                           
  3061                           ; BSR set to: 0
  3062                           ;/opt/microchip/xc8/v2.05/pic/sources/c99/common/doprnt.c: 1375:     while (*cfmt) {
  3063  000E0C  C05D  FFF6         	movff	i2vfprintf@cfmt,tblptrl
  3064  000E10  C05E  FFF7         	movff	i2vfprintf@cfmt+1,tblptrh
  3065  000E14                     	if	0	;tblptru may be non-zero
  3066  000E14                     	endif
  3067  000E14                     	if	0	;tblptru may be non-zero
  3068  000E14                     	endif
  3069  000E14  0008               	tblrd		*
  3070  000E16  50F5               	movf	tablat,w,c
  3071  000E18  0900               	iorlw	0
  3072  000E1A  A4D8               	btfss	status,2,c
  3073  000E1C  D7E4               	goto	i2l1977
  3074                           
  3075                           ; BSR set to: 0
  3076                           ;/opt/microchip/xc8/v2.05/pic/sources/c99/common/doprnt.c: 1378:     return nout;
  3077  000E1E  C0D6  F057         	movff	_nout,?i2_vfprintf
  3078  000E22  C0D7  F058         	movff	_nout+1,?i2_vfprintf+1
  3079                           
  3080                           ; BSR set to: 0
  3081  000E26  0012               	return		;funcret
  3082  000E28                     __end_ofi2_vfprintf:
  3083                           	opt callstack 0
  3084                           
  3085 ;; *************** function i2_vfpfcnvrt *****************
  3086 ;; Defined at:
  3087 ;;		line 670 in file "/opt/microchip/xc8/v2.05/pic/sources/c99/common/doprnt.c"
  3088 ;; Parameters:    Size  Location     Type
  3089 ;;  fp              2   67[COMRAM] PTR struct _IO_FILE
  3090 ;;		 -> NULL(0), 
  3091 ;;  fmt             2   69[COMRAM] PTR PTR unsigned char 
  3092 ;;		 -> i2vfprintf@cfmt(2), vfprintf@cfmt(2), 
  3093 ;;  ap              2   71[COMRAM] PTR PTR void 
  3094 ;;		 -> i2printf@ap(2), printf@ap(2), 
  3095 ;; Auto vars:     Size  Location     Type
  3096 ;;  vfpfcnvrt       8   77[COMRAM] unsigned long long 
  3097 ;;  vfpfcnvrt       8    0        long long 
  3098 ;;  vfpfcnvrt       4    0        long long 
  3099 ;;  vfpfcnvrt       3    0        PTR void 
  3100 ;;  vfpfcnvrt       3    0        unsigned char [3]
  3101 ;;  vfpfcnvrt       3    0        PTR unsigned char 
  3102 ;;  vfpfcnvrt       2    0        int 
  3103 ;;  vfpfcnvrt       2    0        int 
  3104 ;;  vfpfcnvrt       1   85[COMRAM] unsigned char 
  3105 ;; Return value:  Size  Location     Type
  3106 ;;                  2   67[COMRAM] int 
  3107 ;; Registers used:
  3108 ;;		wreg, fsr1l, fsr1h, fsr2l, fsr2h, status,2, status,0, tblptrl, tblptrh, tblptru, cstack
  3109 ;; Tracked objects:
  3110 ;;		On entry : 0/0
  3111 ;;		On exit  : 0/0
  3112 ;;		Unchanged: 0/0
  3113 ;; Data sizes:     COMRAM   BANK0   BANK1   BANK2
  3114 ;;      Params:         6       0       0       0
  3115 ;;      Locals:         9       0       0       0
  3116 ;;      Temps:          4       0       0       0
  3117 ;;      Totals:        19       0       0       0
  3118 ;;Total ram usage:       19 bytes
  3119 ;; Hardware stack levels used:    1
  3120 ;; Hardware stack levels required when called:    5
  3121 ;; This function calls:
  3122 ;;		i2_fputc
  3123 ;;		i2_xtoa
  3124 ;; This function is called by:
  3125 ;;		i2_vfprintf
  3126 ;; This function uses a non-reentrant model
  3127 ;;
  3128                           
  3129                           	psect	text23
  3130  000928                     __ptext23:
  3131                           	opt callstack 0
  3132  000928                     i2_vfpfcnvrt:
  3133                           	opt callstack 13
  3134                           
  3135                           ;/opt/microchip/xc8/v2.05/pic/sources/c99/common/doprnt.c: 670: static int vfpfcnvrt(FIL
      +                          E *fp, char *fmt[], va_list ap);/opt/microchip/xc8/v2.05/pic/sources/c99/common/doprnt.c
      +                          : 671: {;/opt/microchip/xc8/v2.05/pic/sources/c99/common/doprnt.c: 672:     char c, *cp,
      +                           ct[3];;/opt/microchip/xc8/v2.05/pic/sources/c99/common/doprnt.c: 673:     int done, i;;
      +                          /opt/microchip/xc8/v2.05/pic/sources/c99/common/doprnt.c: 674:     long long ll;;/opt/mi
      +                          crochip/xc8/v2.05/pic/sources/c99/common/doprnt.c: 675:     unsigned long long llu;
  3136                           
  3137                           ; BSR set to: 0
  3138                           ;incstack = 0
  3139  000928  C046  FFD9         	movff	i2vfpfcnvrt@fmt,fsr2l
  3140  00092C  C047  FFDA         	movff	i2vfpfcnvrt@fmt+1,fsr2h
  3141  000930  CFDE FFF6          	movff	postinc2,tblptrl
  3142  000934  CFDD FFF7          	movff	postdec2,tblptrh
  3143  000938                     	if	0	;tblptru may be non-zero
  3144  000938                     	endif
  3145  000938                     	if	0	;tblptru may be non-zero
  3146  000938                     	endif
  3147  000938  0008               	tblrd		*
  3148  00093A  50F5               	movf	tablat,w,c
  3149  00093C  0A25               	xorlw	37
  3150  00093E  A4D8               	btfss	status,2,c
  3151  000940  D0A8               	goto	i2l1937
  3152                           
  3153                           ;/opt/microchip/xc8/v2.05/pic/sources/c99/common/doprnt.c: 681:         ++*fmt;
  3154  000942  C046  FFD9         	movff	i2vfpfcnvrt@fmt,fsr2l
  3155  000946  C047  FFDA         	movff	i2vfpfcnvrt@fmt+1,fsr2h
  3156  00094A  2ADE               	incf	postinc2,f,c
  3157  00094C  0E00               	movlw	0
  3158  00094E  22DD               	addwfc	postdec2,f,c
  3159                           
  3160                           ;/opt/microchip/xc8/v2.05/pic/sources/c99/common/doprnt.c: 683:         flags = width = 
      +                          0;
  3161  000950  0E00               	movlw	0
  3162  000952  0100               	movlb	0	; () banked
  3163  000954  6FD9               	movwf	(_width+1)& (0+255),b
  3164  000956  0E00               	movlw	0
  3165  000958  6FD8               	movwf	_width& (0+255),b
  3166  00095A  C0D8  F0DC         	movff	_width,_flags
  3167  00095E  C0D9  F0DD         	movff	_width+1,_flags+1
  3168                           
  3169                           ; BSR set to: 0
  3170                           ;/opt/microchip/xc8/v2.05/pic/sources/c99/common/doprnt.c: 684:         prec = -1;
  3171  000962  69DA               	setf	_prec& (0+255),b
  3172  000964  69DB               	setf	(_prec+1)& (0+255),b
  3173                           
  3174                           ; BSR set to: 0
  3175                           ;/opt/microchip/xc8/v2.05/pic/sources/c99/common/doprnt.c: 1274:         if ((*fmt[0] ==
      +                           'x') || (*fmt[0] == 'X')) {
  3176  000966  C046  FFD9         	movff	i2vfpfcnvrt@fmt,fsr2l
  3177  00096A  C047  FFDA         	movff	i2vfpfcnvrt@fmt+1,fsr2h
  3178  00096E  CFDE FFF6          	movff	postinc2,tblptrl
  3179  000972  CFDD FFF7          	movff	postdec2,tblptrh
  3180  000976                     	if	0	;tblptru may be non-zero
  3181  000976                     	endif
  3182  000976                     	if	0	;tblptru may be non-zero
  3183  000976                     	endif
  3184  000976  0008               	tblrd		*
  3185  000978  50F5               	movf	tablat,w,c
  3186  00097A  0A78               	xorlw	120
  3187  00097C  B4D8               	btfsc	status,2,c
  3188  00097E  D00D               	goto	i2u175_40
  3189                           
  3190                           ; BSR set to: 0
  3191  000980  C046  FFD9         	movff	i2vfpfcnvrt@fmt,fsr2l
  3192  000984  C047  FFDA         	movff	i2vfpfcnvrt@fmt+1,fsr2h
  3193  000988  CFDE FFF6          	movff	postinc2,tblptrl
  3194  00098C  CFDD FFF7          	movff	postdec2,tblptrh
  3195  000990                     	if	0	;tblptru may be non-zero
  3196  000990                     	endif
  3197  000990                     	if	0	;tblptru may be non-zero
  3198  000990                     	endif
  3199  000990  0008               	tblrd		*
  3200  000992  50F5               	movf	tablat,w,c
  3201  000994  0A58               	xorlw	88
  3202  000996  A4D8               	btfss	status,2,c
  3203  000998  D04D               	goto	i2l1921
  3204  00099A                     i2u175_40:
  3205                           
  3206                           ; BSR set to: 0
  3207                           ;/opt/microchip/xc8/v2.05/pic/sources/c99/common/doprnt.c: 1276:             c = (*fmt)[
      +                          0];
  3208  00099A  C046  FFD9         	movff	i2vfpfcnvrt@fmt,fsr2l
  3209  00099E  C047  FFDA         	movff	i2vfpfcnvrt@fmt+1,fsr2h
  3210  0009A2  CFDE FFF6          	movff	postinc2,tblptrl
  3211  0009A6  CFDD FFF7          	movff	postdec2,tblptrh
  3212  0009AA                     	if	0	;tblptru may be non-zero
  3213  0009AA                     	endif
  3214  0009AA                     	if	0	;tblptru may be non-zero
  3215  0009AA                     	endif
  3216  0009AA  0008               	tblrd		*
  3217  0009AC  CFF5 F056          	movff	tablat,i2vfpfcnvrt@c
  3218                           
  3219                           ; BSR set to: 0
  3220                           ;/opt/microchip/xc8/v2.05/pic/sources/c99/common/doprnt.c: 1277:             ++*fmt;
  3221  0009B0  C046  FFD9         	movff	i2vfpfcnvrt@fmt,fsr2l
  3222  0009B4  C047  FFDA         	movff	i2vfpfcnvrt@fmt+1,fsr2h
  3223  0009B8  2ADE               	incf	postinc2,f,c
  3224  0009BA  0E00               	movlw	0
  3225  0009BC  22DD               	addwfc	postdec2,f,c
  3226                           
  3227                           ; BSR set to: 0
  3228                           ;/opt/microchip/xc8/v2.05/pic/sources/c99/common/doprnt.c: 1278:             llu = (unsi
      +                          gned long long)(*(unsigned int *)__va_arg(*(unsigned int **)ap, (unsigned int)0));
  3229  0009BE  C048  FFD9         	movff	i2vfpfcnvrt@ap,fsr2l
  3230  0009C2  C049  FFDA         	movff	i2vfpfcnvrt@ap+1,fsr2h
  3231  0009C6  CFDF F04A          	movff	indf2,??i2_vfpfcnvrt
  3232  0009CA  0E02               	movlw	2
  3233  0009CC  26DE               	addwf	postinc2,f,c
  3234  0009CE  CFDF F04B          	movff	indf2,??i2_vfpfcnvrt+1
  3235  0009D2  0E00               	movlw	0
  3236  0009D4  22DD               	addwfc	postdec2,f,c
  3237  0009D6  C04A  FFD9         	movff	??i2_vfpfcnvrt,fsr2l
  3238  0009DA  C04B  FFDA         	movff	??i2_vfpfcnvrt+1,fsr2h
  3239  0009DE  CFDE F04C          	movff	postinc2,??i2_vfpfcnvrt+2
  3240  0009E2  CFDD F04D          	movff	postdec2,??i2_vfpfcnvrt+3
  3241  0009E6  C04C  F04E         	movff	??i2_vfpfcnvrt+2,i2vfpfcnvrt@llu
  3242  0009EA  C04D  F04F         	movff	??i2_vfpfcnvrt+3,i2vfpfcnvrt@llu+1
  3243  0009EE  6A50               	clrf	i2vfpfcnvrt@llu+2,c
  3244  0009F0  6A51               	clrf	i2vfpfcnvrt@llu+3,c
  3245  0009F2  6A52               	clrf	i2vfpfcnvrt@llu+4,c
  3246  0009F4  6A53               	clrf	i2vfpfcnvrt@llu+5,c
  3247  0009F6  6A54               	clrf	i2vfpfcnvrt@llu+6,c
  3248  0009F8  6A55               	clrf	i2vfpfcnvrt@llu+7,c
  3249                           
  3250                           ; BSR set to: 0
  3251                           ;/opt/microchip/xc8/v2.05/pic/sources/c99/common/doprnt.c: 1280:             return xtoa
      +                          (fp, llu, c);
  3252  0009FA  C044  F01D         	movff	i2vfpfcnvrt@fp,i2xtoa@fp
  3253  0009FE  C045  F01E         	movff	i2vfpfcnvrt@fp+1,i2xtoa@fp+1
  3254  000A02  C04E  F01F         	movff	i2vfpfcnvrt@llu,i2xtoa@d
  3255  000A06  C04F  F020         	movff	i2vfpfcnvrt@llu+1,i2xtoa@d+1
  3256  000A0A  C050  F021         	movff	i2vfpfcnvrt@llu+2,i2xtoa@d+2
  3257  000A0E  C051  F022         	movff	i2vfpfcnvrt@llu+3,i2xtoa@d+3
  3258  000A12  C052  F023         	movff	i2vfpfcnvrt@llu+4,i2xtoa@d+4
  3259  000A16  C053  F024         	movff	i2vfpfcnvrt@llu+5,i2xtoa@d+5
  3260  000A1A  C054  F025         	movff	i2vfpfcnvrt@llu+6,i2xtoa@d+6
  3261  000A1E  C055  F026         	movff	i2vfpfcnvrt@llu+7,i2xtoa@d+7
  3262  000A22  C056  F027         	movff	i2vfpfcnvrt@c,i2xtoa@x
  3263  000A26  ECAA  F002         	call	i2_xtoa	;wreg free
  3264  000A2A  C01D  F044         	movff	?i2_xtoa,?i2_vfpfcnvrt
  3265  000A2E  C01E  F045         	movff	?i2_xtoa+1,?i2_vfpfcnvrt+1
  3266  000A32  0012               	return	
  3267  000A34                     i2l1921:
  3268                           
  3269                           ; BSR set to: 0
  3270                           ;/opt/microchip/xc8/v2.05/pic/sources/c99/common/doprnt.c: 1350:         if ((*fmt)[0] =
      +                          = '%') {
  3271  000A34  C046  FFD9         	movff	i2vfpfcnvrt@fmt,fsr2l
  3272  000A38  C047  FFDA         	movff	i2vfpfcnvrt@fmt+1,fsr2h
  3273  000A3C  CFDE FFF6          	movff	postinc2,tblptrl
  3274  000A40  CFDD FFF7          	movff	postdec2,tblptrh
  3275  000A44                     	if	0	;tblptru may be non-zero
  3276  000A44                     	endif
  3277  000A44                     	if	0	;tblptru may be non-zero
  3278  000A44                     	endif
  3279  000A44  0008               	tblrd		*
  3280  000A46  50F5               	movf	tablat,w,c
  3281  000A48  0A25               	xorlw	37
  3282  000A4A  A4D8               	btfss	status,2,c
  3283  000A4C  D016               	goto	i2l1931
  3284                           
  3285                           ; BSR set to: 0
  3286                           ;/opt/microchip/xc8/v2.05/pic/sources/c99/common/doprnt.c: 1351:             ++*fmt;
  3287  000A4E  C046  FFD9         	movff	i2vfpfcnvrt@fmt,fsr2l
  3288  000A52  C047  FFDA         	movff	i2vfpfcnvrt@fmt+1,fsr2h
  3289  000A56  2ADE               	incf	postinc2,f,c
  3290  000A58  0E00               	movlw	0
  3291  000A5A  22DD               	addwfc	postdec2,f,c
  3292                           
  3293                           ; BSR set to: 0
  3294                           ;/opt/microchip/xc8/v2.05/pic/sources/c99/common/doprnt.c: 1352:             fputc((int)
      +                          '%', fp);
  3295  000A5C  0E00               	movlw	0
  3296  000A5E  6E03               	movwf	i2fputc@c+1,c
  3297  000A60  0E25               	movlw	37
  3298  000A62  6E02               	movwf	i2fputc@c,c
  3299  000A64  C044  F004         	movff	i2vfpfcnvrt@fp,i2fputc@fp
  3300  000A68  C045  F005         	movff	i2vfpfcnvrt@fp+1,i2fputc@fp+1
  3301  000A6C  EC88  F006         	call	i2_fputc	;wreg free
  3302  000A70                     i2l1927:
  3303                           
  3304                           ;/opt/microchip/xc8/v2.05/pic/sources/c99/common/doprnt.c: 1353:             return 1;
  3305  000A70  0E00               	movlw	0
  3306  000A72  6E45               	movwf	?i2_vfpfcnvrt+1,c
  3307  000A74  0E01               	movlw	1
  3308  000A76  6E44               	movwf	?i2_vfpfcnvrt,c
  3309  000A78  0012               	return	
  3310  000A7A                     i2l1931:
  3311                           
  3312                           ; BSR set to: 0
  3313                           ;/opt/microchip/xc8/v2.05/pic/sources/c99/common/doprnt.c: 1357:         ++*fmt;
  3314  000A7A  C046  FFD9         	movff	i2vfpfcnvrt@fmt,fsr2l
  3315  000A7E  C047  FFDA         	movff	i2vfpfcnvrt@fmt+1,fsr2h
  3316  000A82  2ADE               	incf	postinc2,f,c
  3317  000A84  0E00               	movlw	0
  3318  000A86  22DD               	addwfc	postdec2,f,c
  3319                           
  3320                           ; BSR set to: 0
  3321                           ;/opt/microchip/xc8/v2.05/pic/sources/c99/common/doprnt.c: 1358:         return 0;
  3322  000A88  0E00               	movlw	0
  3323  000A8A  6E45               	movwf	?i2_vfpfcnvrt+1,c
  3324  000A8C  0E00               	movlw	0
  3325  000A8E  6E44               	movwf	?i2_vfpfcnvrt,c
  3326  000A90  0012               	return	
  3327  000A92                     i2l1937:
  3328                           
  3329                           ;/opt/microchip/xc8/v2.05/pic/sources/c99/common/doprnt.c: 1362:     fputc((int)(*fmt)[0
      +                          ], fp);
  3330  000A92  C046  FFD9         	movff	i2vfpfcnvrt@fmt,fsr2l
  3331  000A96  C047  FFDA         	movff	i2vfpfcnvrt@fmt+1,fsr2h
  3332  000A9A  CFDE FFF6          	movff	postinc2,tblptrl
  3333  000A9E  CFDD FFF7          	movff	postdec2,tblptrh
  3334  000AA2                     	if	0	;tblptru may be non-zero
  3335  000AA2                     	endif
  3336  000AA2                     	if	0	;tblptru may be non-zero
  3337  000AA2                     	endif
  3338  000AA2  0008               	tblrd		*
  3339  000AA4  50F5               	movf	tablat,w,c
  3340  000AA6  6E02               	movwf	i2fputc@c,c
  3341  000AA8  6A03               	clrf	i2fputc@c+1,c
  3342  000AAA  C044  F004         	movff	i2vfpfcnvrt@fp,i2fputc@fp
  3343  000AAE  C045  F005         	movff	i2vfpfcnvrt@fp+1,i2fputc@fp+1
  3344  000AB2  EC88  F006         	call	i2_fputc	;wreg free
  3345                           
  3346                           ;/opt/microchip/xc8/v2.05/pic/sources/c99/common/doprnt.c: 1363:     ++*fmt;
  3347  000AB6  C046  FFD9         	movff	i2vfpfcnvrt@fmt,fsr2l
  3348  000ABA  C047  FFDA         	movff	i2vfpfcnvrt@fmt+1,fsr2h
  3349  000ABE  2ADE               	incf	postinc2,f,c
  3350  000AC0  0E00               	movlw	0
  3351  000AC2  22DD               	addwfc	postdec2,f,c
  3352  000AC4  D7D5               	goto	i2l1927
  3353  000AC6                     __end_ofi2_vfpfcnvrt:
  3354                           	opt callstack 0
  3355                           
  3356 ;; *************** function i2_xtoa *****************
  3357 ;; Defined at:
  3358 ;;		line 623 in file "/opt/microchip/xc8/v2.05/pic/sources/c99/common/doprnt.c"
  3359 ;; Parameters:    Size  Location     Type
  3360 ;;  fp              2   28[COMRAM] PTR struct _IO_FILE
  3361 ;;		 -> NULL(0), 
  3362 ;;  d               8   30[COMRAM] unsigned long long 
  3363 ;;  x               1   38[COMRAM] unsigned char 
  3364 ;; Auto vars:     Size  Location     Type
  3365 ;;  xtoa            8   55[COMRAM] unsigned long long 
  3366 ;;  xtoa            2   65[COMRAM] int 
  3367 ;;  xtoa            2   63[COMRAM] int 
  3368 ;;  xtoa            2   53[COMRAM] int 
  3369 ;;  xtoa            2   51[COMRAM] int 
  3370 ;; Return value:  Size  Location     Type
  3371 ;;                  2   28[COMRAM] int 
  3372 ;; Registers used:
  3373 ;;		wreg, fsr1l, fsr1h, fsr2l, fsr2h, status,2, status,0, cstack
  3374 ;; Tracked objects:
  3375 ;;		On entry : 0/0
  3376 ;;		On exit  : 0/0
  3377 ;;		Unchanged: 0/0
  3378 ;; Data sizes:     COMRAM   BANK0   BANK1   BANK2
  3379 ;;      Params:        11       0       0       0
  3380 ;;      Locals:        20       0       0       0
  3381 ;;      Temps:          8       0       0       0
  3382 ;;      Totals:        39       0       0       0
  3383 ;;Total ram usage:       39 bytes
  3384 ;; Hardware stack levels used:    1
  3385 ;; Hardware stack levels required when called:    4
  3386 ;; This function calls:
  3387 ;;		i2_isalpha
  3388 ;;		i2_isupper
  3389 ;;		i2_pad
  3390 ;;		i2_toupper
  3391 ;; This function is called by:
  3392 ;;		i2_vfpfcnvrt
  3393 ;; This function uses a non-reentrant model
  3394 ;;
  3395                           
  3396                           	psect	text24
  3397  000554                     __ptext24:
  3398                           	opt callstack 0
  3399  000554                     i2_xtoa:
  3400                           	opt callstack 13
  3401                           
  3402                           ;/opt/microchip/xc8/v2.05/pic/sources/c99/common/doprnt.c: 623: static int xtoa(FILE *fp
      +                          , unsigned long long d, char x);/opt/microchip/xc8/v2.05/pic/sources/c99/common/doprnt.c
      +                          : 624: {;/opt/microchip/xc8/v2.05/pic/sources/c99/common/doprnt.c: 625:     int c, i, p,
      +                           w;;/opt/microchip/xc8/v2.05/pic/sources/c99/common/doprnt.c: 626:     unsigned long lon
      +                          g n;;/opt/microchip/xc8/v2.05/pic/sources/c99/common/doprnt.c: 629:     if (!(prec < 0))
      +                           {
  3403                           
  3404                           ;incstack = 0
  3405  000554  0100               	movlb	0	; () banked
  3406  000556  AFDB               	btfss	(_prec+1)& (0+255),7,b
  3407                           
  3408                           ; BSR set to: 0
  3409                           ;/opt/microchip/xc8/v2.05/pic/sources/c99/common/doprnt.c: 630:         flags &= ~(1 << 
      +                          1);
  3410  000558  93DC               	bcf	_flags& (0+255),1,b
  3411                           
  3412                           ; BSR set to: 0
  3413                           ;/opt/microchip/xc8/v2.05/pic/sources/c99/common/doprnt.c: 632:     p = (0 < prec) ? pre
      +                          c : 1;
  3414  00055A  BFDB               	btfsc	(_prec+1)& (0+255),7,b
  3415  00055C  D005               	goto	i2u153_40
  3416  00055E  51DB               	movf	(_prec+1)& (0+255),w,b
  3417  000560  E108               	bnz	i2l228
  3418  000562  05DA               	decf	_prec& (0+255),w,b
  3419  000564  B0D8               	btfsc	status,0,c
  3420  000566  D005               	goto	i2l228
  3421  000568                     i2u153_40:
  3422                           
  3423                           ; BSR set to: 0
  3424  000568  0E00               	movlw	0
  3425  00056A  6E35               	movwf	i2xtoa@p+1,c
  3426  00056C  0E01               	movlw	1
  3427  00056E  6E34               	movwf	i2xtoa@p,c
  3428  000570  D004               	goto	i2l230
  3429  000572                     i2l228:
  3430                           
  3431                           ; BSR set to: 0
  3432  000572  C0DA  F034         	movff	_prec,i2xtoa@p
  3433  000576  C0DB  F035         	movff	_prec+1,i2xtoa@p+1
  3434  00057A                     i2l230:
  3435                           
  3436                           ; BSR set to: 0
  3437                           ;/opt/microchip/xc8/v2.05/pic/sources/c99/common/doprnt.c: 633:     w = width;
  3438  00057A  C0D8  F036         	movff	_width,i2xtoa@w
  3439  00057E  C0D9  F037         	movff	_width+1,i2xtoa@w+1
  3440                           
  3441                           ;/opt/microchip/xc8/v2.05/pic/sources/c99/common/doprnt.c: 634:     if (flags & (1 << 4)
      +                          ) {
  3442  000582  A9DC               	btfss	_flags& (0+255),4,b
  3443  000584  D004               	goto	i2l1797
  3444                           
  3445                           ; BSR set to: 0
  3446                           ;/opt/microchip/xc8/v2.05/pic/sources/c99/common/doprnt.c: 635:         w -= 2;
  3447  000586  0EFE               	movlw	254
  3448  000588  2636               	addwf	i2xtoa@w,f,c
  3449  00058A  0EFF               	movlw	255
  3450  00058C  2237               	addwfc	i2xtoa@w+1,f,c
  3451  00058E                     i2l1797:
  3452                           
  3453                           ; BSR set to: 0
  3454                           ;/opt/microchip/xc8/v2.05/pic/sources/c99/common/doprnt.c: 639:     n = d;
  3455  00058E  C01F  F038         	movff	i2xtoa@d,i2xtoa@n
  3456  000592  C020  F039         	movff	i2xtoa@d+1,i2xtoa@n+1
  3457  000596  C021  F03A         	movff	i2xtoa@d+2,i2xtoa@n+2
  3458  00059A  C022  F03B         	movff	i2xtoa@d+3,i2xtoa@n+3
  3459  00059E  C023  F03C         	movff	i2xtoa@d+4,i2xtoa@n+4
  3460  0005A2  C024  F03D         	movff	i2xtoa@d+5,i2xtoa@n+5
  3461  0005A6  C025  F03E         	movff	i2xtoa@d+6,i2xtoa@n+6
  3462  0005AA  C026  F03F         	movff	i2xtoa@d+7,i2xtoa@n+7
  3463                           
  3464                           ; BSR set to: 0
  3465                           ;/opt/microchip/xc8/v2.05/pic/sources/c99/common/doprnt.c: 640:     i = sizeof(dbuf) - 1
      +                          ;
  3466  0005AE  0E00               	movlw	0
  3467  0005B0  6E41               	movwf	i2xtoa@i+1,c
  3468  0005B2  0E1F               	movlw	31
  3469  0005B4  6E40               	movwf	i2xtoa@i,c
  3470                           
  3471                           ; BSR set to: 0
  3472                           ;/opt/microchip/xc8/v2.05/pic/sources/c99/common/doprnt.c: 641:     dbuf[i] = '\0';
  3473  0005B6  0E00               	movlw	0
  3474  0005B8  0101               	movlb	1	; () banked
  3475  0005BA  6F1F               	movwf	(_dbuf+31)& (0+255),b
  3476                           
  3477                           ;/opt/microchip/xc8/v2.05/pic/sources/c99/common/doprnt.c: 642:     while (!(i < 2) && (
      +                          n || (0 < p) || ((0 < w) && (flags & (1 << 1))))) {
  3478  0005BC  D093               	goto	i2l1833
  3479  0005BE                     i2l1803:
  3480                           
  3481                           ;/opt/microchip/xc8/v2.05/pic/sources/c99/common/doprnt.c: 643:         --i;
  3482  0005BE  0640               	decf	i2xtoa@i,f,c
  3483  0005C0  A0D8               	btfss	status,0,c
  3484  0005C2  0641               	decf	i2xtoa@i+1,f,c
  3485                           
  3486                           ;/opt/microchip/xc8/v2.05/pic/sources/c99/common/doprnt.c: 644:         c = n & 0x0f;
  3487  0005C4  0E0F               	movlw	15
  3488  0005C6  1438               	andwf	i2xtoa@n,w,c
  3489  0005C8  6E42               	movwf	i2xtoa@c,c
  3490  0005CA  6A43               	clrf	i2xtoa@c+1,c
  3491                           
  3492                           ;/opt/microchip/xc8/v2.05/pic/sources/c99/common/doprnt.c: 645:         c = (c < 10) ? '
      +                          0' + c : 'a' + (c - 10);
  3493  0005CC  BE43               	btfsc	i2xtoa@c+1,7,c
  3494  0005CE  D008               	goto	i2l1811
  3495  0005D0  5043               	movf	i2xtoa@c+1,w,c
  3496  0005D2  E104               	bnz	i2u155_40
  3497  0005D4  0E0A               	movlw	10
  3498  0005D6  5C42               	subwf	i2xtoa@c,w,c
  3499  0005D8  A0D8               	btfss	status,0,c
  3500  0005DA  D002               	goto	i2l1811
  3501  0005DC                     i2u155_40:
  3502  0005DC  0E57               	movlw	87
  3503  0005DE  D001               	goto	L2
  3504  0005E0                     i2l1811:
  3505  0005E0  0E30               	movlw	48
  3506  0005E2                     L2:
  3507  0005E2  2442               	addwf	i2xtoa@c,w,c
  3508  0005E4  6E42               	movwf	i2xtoa@c,c
  3509  0005E6  0E00               	movlw	0
  3510  0005E8  2043               	addwfc	i2xtoa@c+1,w,c
  3511  0005EA  6E43               	movwf	i2xtoa@c+1,c
  3512                           
  3513                           ;/opt/microchip/xc8/v2.05/pic/sources/c99/common/doprnt.c: 646:         if ((0 ? isupper
      +                          ((int)x) : ((unsigned)((int)x)-'A') < 26) && (0 ? isalpha(c) : (((unsigned)(c)|32)-'a') 
      +                          < 26)) {
  3514  0005EC  0EBF               	movlw	191
  3515  0005EE  6E28               	movwf	??i2_xtoa& (0+255),c
  3516  0005F0  0EFF               	movlw	255
  3517  0005F2  6E29               	movwf	(??i2_xtoa+1)& (0+255),c
  3518  0005F4  5027               	movf	i2xtoa@x,w,c
  3519  0005F6  6E2A               	movwf	(??i2_xtoa+2)& (0+255),c
  3520  0005F8  6A2B               	clrf	(??i2_xtoa+3)& (0+255),c
  3521  0005FA  5028               	movf	??i2_xtoa,w,c
  3522  0005FC  262A               	addwf	??i2_xtoa+2,f,c
  3523  0005FE  5029               	movf	??i2_xtoa+1,w,c
  3524  000600  222B               	addwfc	??i2_xtoa+3,f,c
  3525  000602  502B               	movf	??i2_xtoa+3,w,c
  3526  000604  E106               	bnz	i2u156_40
  3527  000606  0E1A               	movlw	26
  3528  000608  5C2A               	subwf	??i2_xtoa+2,w,c
  3529  00060A  B0D8               	btfsc	status,0,c
  3530  00060C  D002               	goto	i2u156_40
  3531  00060E  0E01               	movlw	1
  3532  000610  D001               	goto	i2u157_40
  3533  000612                     i2u156_40:
  3534  000612  0E00               	movlw	0
  3535  000614                     i2u157_40:
  3536  000614  6E30               	movwf	i2_xtoa$805,c
  3537  000616  6A31               	clrf	i2_xtoa$805+1,c
  3538  000618  5030               	movf	i2_xtoa$805,w,c
  3539  00061A  1031               	iorwf	i2_xtoa$805+1,w,c
  3540  00061C  B4D8               	btfsc	status,2,c
  3541  00061E  D027               	goto	i2l1825
  3542  000620  0E9F               	movlw	159
  3543  000622  6E28               	movwf	??i2_xtoa& (0+255),c
  3544  000624  0EFF               	movlw	255
  3545  000626  6E29               	movwf	(??i2_xtoa+1)& (0+255),c
  3546  000628  0E20               	movlw	32
  3547  00062A  1042               	iorwf	i2xtoa@c,w,c
  3548  00062C  6E2A               	movwf	(??i2_xtoa+2)& (0+255),c
  3549  00062E  0E00               	movlw	0
  3550  000630  1043               	iorwf	i2xtoa@c+1,w,c
  3551  000632  6E2B               	movwf	(??i2_xtoa+3)& (0+255),c
  3552  000634  5028               	movf	??i2_xtoa,w,c
  3553  000636  262A               	addwf	??i2_xtoa+2,f,c
  3554  000638  5029               	movf	??i2_xtoa+1,w,c
  3555  00063A  222B               	addwfc	??i2_xtoa+3,f,c
  3556  00063C  502B               	movf	??i2_xtoa+3,w,c
  3557  00063E  E106               	bnz	i2u159_40
  3558  000640  0E1A               	movlw	26
  3559  000642  5C2A               	subwf	??i2_xtoa+2,w,c
  3560  000644  B0D8               	btfsc	status,0,c
  3561  000646  D002               	goto	i2u159_40
  3562  000648  0E01               	movlw	1
  3563  00064A  D001               	goto	i2u160_40
  3564  00064C                     i2u159_40:
  3565  00064C  0E00               	movlw	0
  3566  00064E                     i2u160_40:
  3567  00064E  6E32               	movwf	i2_xtoa$806,c
  3568  000650  6A33               	clrf	i2_xtoa$806+1,c
  3569  000652  5032               	movf	i2_xtoa$806,w,c
  3570  000654  1033               	iorwf	i2_xtoa$806+1,w,c
  3571  000656  B4D8               	btfsc	status,2,c
  3572  000658  D00A               	goto	i2l1825
  3573                           
  3574                           ;/opt/microchip/xc8/v2.05/pic/sources/c99/common/doprnt.c: 647:             c = toupper(
      +                          c);
  3575  00065A  C042  F007         	movff	i2xtoa@c,i2toupper@c
  3576  00065E  C043  F008         	movff	i2xtoa@c+1,i2toupper@c+1
  3577  000662  EC5F  F007         	call	i2_toupper	;wreg free
  3578  000666  C007  F042         	movff	?i2_toupper,i2xtoa@c
  3579  00066A  C008  F043         	movff	?i2_toupper+1,i2xtoa@c+1
  3580  00066E                     i2l1825:
  3581                           
  3582                           ;/opt/microchip/xc8/v2.05/pic/sources/c99/common/doprnt.c: 649:         dbuf[i] = (char)
      +                          c;
  3583  00066E  0E00               	movlw	low _dbuf
  3584  000670  2440               	addwf	i2xtoa@i,w,c
  3585  000672  6ED9               	movwf	fsr2l,c
  3586  000674  0E01               	movlw	high _dbuf
  3587  000676  2041               	addwfc	i2xtoa@i+1,w,c
  3588  000678  6EDA               	movwf	fsr2h,c
  3589  00067A  C042  FFDF         	movff	i2xtoa@c,indf2
  3590                           
  3591                           ;/opt/microchip/xc8/v2.05/pic/sources/c99/common/doprnt.c: 650:         --p;
  3592  00067E  0634               	decf	i2xtoa@p,f,c
  3593  000680  A0D8               	btfss	status,0,c
  3594  000682  0635               	decf	i2xtoa@p+1,f,c
  3595                           
  3596                           ;/opt/microchip/xc8/v2.05/pic/sources/c99/common/doprnt.c: 651:         --w;
  3597  000684  0636               	decf	i2xtoa@w,f,c
  3598  000686  A0D8               	btfss	status,0,c
  3599  000688  0637               	decf	i2xtoa@w+1,f,c
  3600                           
  3601                           ;/opt/microchip/xc8/v2.05/pic/sources/c99/common/doprnt.c: 652:         n = n >> 4;
  3602  00068A  C038  F028         	movff	i2xtoa@n,??i2_xtoa
  3603  00068E  C039  F029         	movff	i2xtoa@n+1,??i2_xtoa+1
  3604  000692  C03A  F02A         	movff	i2xtoa@n+2,??i2_xtoa+2
  3605  000696  C03B  F02B         	movff	i2xtoa@n+3,??i2_xtoa+3
  3606  00069A  C03C  F02C         	movff	i2xtoa@n+4,??i2_xtoa+4
  3607  00069E  C03D  F02D         	movff	i2xtoa@n+5,??i2_xtoa+5
  3608  0006A2  C03E  F02E         	movff	i2xtoa@n+6,??i2_xtoa+6
  3609  0006A6  C03F  F02F         	movff	i2xtoa@n+7,??i2_xtoa+7
  3610  0006AA  0E05               	movlw	5
  3611  0006AC  D009               	goto	i2u162_40
  3612  0006AE                     i2u162_45:
  3613  0006AE  90D8               	bcf	status,0,c
  3614  0006B0  322F               	rrcf	??i2_xtoa+7,f,c
  3615  0006B2  322E               	rrcf	??i2_xtoa+6,f,c
  3616  0006B4  322D               	rrcf	??i2_xtoa+5,f,c
  3617  0006B6  322C               	rrcf	??i2_xtoa+4,f,c
  3618  0006B8  322B               	rrcf	??i2_xtoa+3,f,c
  3619  0006BA  322A               	rrcf	??i2_xtoa+2,f,c
  3620  0006BC  3229               	rrcf	??i2_xtoa+1,f,c
  3621  0006BE  3228               	rrcf	??i2_xtoa,f,c
  3622  0006C0                     i2u162_40:
  3623  0006C0  2EE8               	decfsz	wreg,f,c
  3624  0006C2  D7F5               	goto	i2u162_45
  3625  0006C4  C028  F038         	movff	??i2_xtoa,i2xtoa@n
  3626  0006C8  C029  F039         	movff	??i2_xtoa+1,i2xtoa@n+1
  3627  0006CC  C02A  F03A         	movff	??i2_xtoa+2,i2xtoa@n+2
  3628  0006D0  C02B  F03B         	movff	??i2_xtoa+3,i2xtoa@n+3
  3629  0006D4  C02C  F03C         	movff	??i2_xtoa+4,i2xtoa@n+4
  3630  0006D8  C02D  F03D         	movff	??i2_xtoa+5,i2xtoa@n+5
  3631  0006DC  C02E  F03E         	movff	??i2_xtoa+6,i2xtoa@n+6
  3632  0006E0  C02F  F03F         	movff	??i2_xtoa+7,i2xtoa@n+7
  3633  0006E4                     i2l1833:
  3634                           
  3635                           ;/opt/microchip/xc8/v2.05/pic/sources/c99/common/doprnt.c: 642:     while (!(i < 2) && (
      +                          n || (0 < p) || ((0 < w) && (flags & (1 << 1))))) {
  3636  0006E4  BE41               	btfsc	i2xtoa@i+1,7,c
  3637  0006E6  D021               	goto	i2u167_40
  3638  0006E8  5041               	movf	i2xtoa@i+1,w,c
  3639  0006EA  E104               	bnz	i2u163_40
  3640  0006EC  0E02               	movlw	2
  3641  0006EE  5C40               	subwf	i2xtoa@i,w,c
  3642  0006F0  A0D8               	btfss	status,0,c
  3643  0006F2  D01B               	goto	i2u167_40
  3644  0006F4                     i2u163_40:
  3645  0006F4  5038               	movf	i2xtoa@n,w,c
  3646  0006F6  1039               	iorwf	i2xtoa@n+1,w,c
  3647  0006F8  103A               	iorwf	i2xtoa@n+2,w,c
  3648  0006FA  103B               	iorwf	i2xtoa@n+3,w,c
  3649  0006FC  103C               	iorwf	i2xtoa@n+4,w,c
  3650  0006FE  103D               	iorwf	i2xtoa@n+5,w,c
  3651  000700  103E               	iorwf	i2xtoa@n+6,w,c
  3652  000702  103F               	iorwf	i2xtoa@n+7,w,c
  3653  000704  A4D8               	btfss	status,2,c
  3654  000706  D75B               	goto	i2l1803
  3655  000708  BE35               	btfsc	i2xtoa@p+1,7,c
  3656  00070A  D005               	goto	i2u165_40
  3657  00070C  5035               	movf	i2xtoa@p+1,w,c
  3658  00070E  E102               	bnz	i2u165_41
  3659  000710  0434               	decf	i2xtoa@p,w,c
  3660  000712  B0D8               	btfsc	status,0,c
  3661  000714                     i2u165_41:
  3662  000714  D754               	goto	i2l1803
  3663  000716                     i2u165_40:
  3664  000716  BE37               	btfsc	i2xtoa@w+1,7,c
  3665  000718  D008               	goto	i2u167_40
  3666  00071A  5037               	movf	i2xtoa@w+1,w,c
  3667  00071C  E103               	bnz	i2u166_40
  3668  00071E  0436               	decf	i2xtoa@w,w,c
  3669  000720  A0D8               	btfss	status,0,c
  3670  000722  D003               	goto	i2u167_40
  3671  000724                     i2u166_40:
  3672  000724  0100               	movlb	0	; () banked
  3673  000726  B3DC               	btfsc	_flags& (0+255),1,b
  3674  000728  D74A               	goto	i2l1803
  3675  00072A                     i2u167_40:
  3676                           
  3677                           ;/opt/microchip/xc8/v2.05/pic/sources/c99/common/doprnt.c: 656:     if (flags & (1 << 4)
      +                          ) {
  3678  00072A  0100               	movlb	0	; () banked
  3679  00072C  A9DC               	btfss	_flags& (0+255),4,b
  3680  00072E  D016               	goto	i2l1849
  3681                           
  3682                           ; BSR set to: 0
  3683                           ;/opt/microchip/xc8/v2.05/pic/sources/c99/common/doprnt.c: 657:         --i;
  3684  000730  0640               	decf	i2xtoa@i,f,c
  3685  000732  A0D8               	btfss	status,0,c
  3686  000734  0641               	decf	i2xtoa@i+1,f,c
  3687                           
  3688                           ; BSR set to: 0
  3689                           ;/opt/microchip/xc8/v2.05/pic/sources/c99/common/doprnt.c: 658:         dbuf[i] = x;
  3690  000736  0E00               	movlw	low _dbuf
  3691  000738  2440               	addwf	i2xtoa@i,w,c
  3692  00073A  6ED9               	movwf	fsr2l,c
  3693  00073C  0E01               	movlw	high _dbuf
  3694  00073E  2041               	addwfc	i2xtoa@i+1,w,c
  3695  000740  6EDA               	movwf	fsr2h,c
  3696  000742  C027  FFDF         	movff	i2xtoa@x,indf2
  3697                           
  3698                           ; BSR set to: 0
  3699                           ;/opt/microchip/xc8/v2.05/pic/sources/c99/common/doprnt.c: 659:         --i;
  3700  000746  0640               	decf	i2xtoa@i,f,c
  3701  000748  A0D8               	btfss	status,0,c
  3702  00074A  0641               	decf	i2xtoa@i+1,f,c
  3703                           
  3704                           ;/opt/microchip/xc8/v2.05/pic/sources/c99/common/doprnt.c: 660:         dbuf[i] = '0';
  3705  00074C  0E00               	movlw	low _dbuf
  3706  00074E  2440               	addwf	i2xtoa@i,w,c
  3707  000750  6ED9               	movwf	fsr2l,c
  3708  000752  0E01               	movlw	high _dbuf
  3709  000754  2041               	addwfc	i2xtoa@i+1,w,c
  3710  000756  6EDA               	movwf	fsr2h,c
  3711  000758  0E30               	movlw	48
  3712  00075A  6EDF               	movwf	indf2,c
  3713  00075C                     i2l1849:
  3714                           
  3715                           ; BSR set to: 0
  3716                           ;/opt/microchip/xc8/v2.05/pic/sources/c99/common/doprnt.c: 664:     return pad(fp, &dbuf
      +                          [i], w);
  3717  00075C  C01D  F012         	movff	i2xtoa@fp,i2pad@fp
  3718  000760  C01E  F013         	movff	i2xtoa@fp+1,i2pad@fp+1
  3719  000764  0E00               	movlw	low _dbuf
  3720  000766  2440               	addwf	i2xtoa@i,w,c
  3721  000768  6E14               	movwf	i2pad@buf,c
  3722  00076A  0E01               	movlw	high _dbuf
  3723  00076C  2041               	addwfc	i2xtoa@i+1,w,c
  3724  00076E  6E15               	movwf	i2pad@buf+1,c
  3725  000770  C036  F016         	movff	i2xtoa@w,i2pad@p
  3726  000774  C037  F017         	movff	i2xtoa@w+1,i2pad@p+1
  3727  000778  EC04  F006         	call	i2_pad	;wreg free
  3728  00077C  C012  F01D         	movff	?i2_pad,?i2_xtoa
  3729  000780  C013  F01E         	movff	?i2_pad+1,?i2_xtoa+1
  3730  000784  0012               	return		;funcret
  3731  000786                     __end_ofi2_xtoa:
  3732                           	opt callstack 0
  3733                           
  3734 ;; *************** function i2_toupper *****************
  3735 ;; Defined at:
  3736 ;;		line 4 in file "/opt/microchip/xc8/v2.05/pic/sources/c99/common/toupper.c"
  3737 ;; Parameters:    Size  Location     Type
  3738 ;;  c               2    6[COMRAM] int 
  3739 ;; Auto vars:     Size  Location     Type
  3740 ;;		None
  3741 ;; Return value:  Size  Location     Type
  3742 ;;                  2    6[COMRAM] int 
  3743 ;; Registers used:
  3744 ;;		wreg, status,2, status,0
  3745 ;; Tracked objects:
  3746 ;;		On entry : 0/0
  3747 ;;		On exit  : 0/0
  3748 ;;		Unchanged: 0/0
  3749 ;; Data sizes:     COMRAM   BANK0   BANK1   BANK2
  3750 ;;      Params:         2       0       0       0
  3751 ;;      Locals:         2       0       0       0
  3752 ;;      Temps:          4       0       0       0
  3753 ;;      Totals:         8       0       0       0
  3754 ;;Total ram usage:        8 bytes
  3755 ;; Hardware stack levels used:    1
  3756 ;; Hardware stack levels required when called:    1
  3757 ;; This function calls:
  3758 ;;		i2_islower
  3759 ;; This function is called by:
  3760 ;;		i2_xtoa
  3761 ;; This function uses a non-reentrant model
  3762 ;;
  3763                           
  3764                           	psect	text25
  3765  000EBE                     __ptext25:
  3766                           	opt callstack 0
  3767  000EBE                     i2_toupper:
  3768                           	opt callstack 15
  3769                           
  3770                           ;incstack = 0
  3771  000EBE  0E9F               	movlw	159
  3772  000EC0  6E09               	movwf	??i2_toupper& (0+255),c
  3773  000EC2  0EFF               	movlw	255
  3774  000EC4  6E0A               	movwf	(??i2_toupper+1)& (0+255),c
  3775  000EC6  C007  F00B         	movff	i2toupper@c,??i2_toupper+2
  3776  000ECA  C008  F00C         	movff	i2toupper@c+1,??i2_toupper+3
  3777  000ECE  5009               	movf	??i2_toupper,w,c
  3778  000ED0  260B               	addwf	??i2_toupper+2,f,c
  3779  000ED2  500A               	movf	??i2_toupper+1,w,c
  3780  000ED4  220C               	addwfc	??i2_toupper+3,f,c
  3781  000ED6  500C               	movf	??i2_toupper+3,w,c
  3782  000ED8  E106               	bnz	i2u132_40
  3783  000EDA  0E1A               	movlw	26
  3784  000EDC  5C0B               	subwf	??i2_toupper+2,w,c
  3785  000EDE  B0D8               	btfsc	status,0,c
  3786  000EE0  D002               	goto	i2u132_40
  3787  000EE2  0E01               	movlw	1
  3788  000EE4  D001               	goto	i2u133_40
  3789  000EE6                     i2u132_40:
  3790  000EE6  0E00               	movlw	0
  3791  000EE8                     i2u133_40:
  3792  000EE8  6E0D               	movwf	i2_toupper$1335,c
  3793  000EEA  6A0E               	clrf	i2_toupper$1335+1,c
  3794  000EEC  500D               	movf	i2_toupper$1335,w,c
  3795  000EEE  100E               	iorwf	i2_toupper$1335+1,w,c
  3796  000EF0  B4D8               	btfsc	status,2,c
  3797  000EF2  D005               	goto	i2l991
  3798  000EF4  0E5F               	movlw	95
  3799  000EF6  1407               	andwf	i2toupper@c,w,c
  3800  000EF8  6E07               	movwf	?i2_toupper,c
  3801  000EFA  6A08               	clrf	?i2_toupper+1,c
  3802  000EFC  0012               	return	
  3803  000EFE                     i2l991:
  3804  000EFE  C007  F007         	movff	i2toupper@c,?i2_toupper
  3805  000F02  C008  F008         	movff	i2toupper@c+1,?i2_toupper+1
  3806  000F06  0012               	return		;funcret
  3807  000F08                     __end_ofi2_toupper:
  3808                           	opt callstack 0
  3809                           
  3810 ;; *************** function i2_islower *****************
  3811 ;; Defined at:
  3812 ;;		line 5 in file "/opt/microchip/xc8/v2.05/pic/sources/c99/common/islower.c"
  3813 ;; Parameters:    Size  Location     Type
  3814 ;;  c               2    0[COMRAM] int 
  3815 ;; Auto vars:     Size  Location     Type
  3816 ;;		None
  3817 ;; Return value:  Size  Location     Type
  3818 ;;                  2    0[COMRAM] int 
  3819 ;; Registers used:
  3820 ;;		wreg, status,2, status,0
  3821 ;; Tracked objects:
  3822 ;;		On entry : 0/0
  3823 ;;		On exit  : 0/0
  3824 ;;		Unchanged: 0/0
  3825 ;; Data sizes:     COMRAM   BANK0   BANK1   BANK2
  3826 ;;      Params:         2       0       0       0
  3827 ;;      Locals:         0       0       0       0
  3828 ;;      Temps:          4       0       0       0
  3829 ;;      Totals:         6       0       0       0
  3830 ;;Total ram usage:        6 bytes
  3831 ;; Hardware stack levels used:    1
  3832 ;; This function calls:
  3833 ;;		Nothing
  3834 ;; This function is called by:
  3835 ;;		i2_toupper
  3836 ;; This function uses a non-reentrant model
  3837 ;;
  3838                           
  3839                           	psect	text26
  3840  00107A                     __ptext26:
  3841                           	opt callstack 0
  3842  00107A                     i2_islower:
  3843                           	opt callstack 15
  3844                           
  3845                           ;incstack = 0
  3846  00107A  0E9F               	movlw	159
  3847  00107C  6E03               	movwf	??i2_islower& (0+255),c
  3848  00107E  0EFF               	movlw	255
  3849  001080  6E04               	movwf	(??i2_islower+1)& (0+255),c
  3850  001082  C001  F005         	movff	i2islower@c,??i2_islower+2
  3851  001086  C002  F006         	movff	i2islower@c+1,??i2_islower+3
  3852  00108A  5003               	movf	??i2_islower,w,c
  3853  00108C  2605               	addwf	??i2_islower+2,f,c
  3854  00108E  5004               	movf	??i2_islower+1,w,c
  3855  001090  2206               	addwfc	??i2_islower+3,f,c
  3856  001092  5006               	movf	??i2_islower+3,w,c
  3857  001094  E106               	bnz	i2u111_40
  3858  001096  0E1A               	movlw	26
  3859  001098  5C05               	subwf	??i2_islower+2,w,c
  3860  00109A  B0D8               	btfsc	status,0,c
  3861  00109C  D002               	goto	i2u111_40
  3862  00109E  0E01               	movlw	1
  3863  0010A0  D001               	goto	i2u112_40
  3864  0010A2                     i2u111_40:
  3865  0010A2  0E00               	movlw	0
  3866  0010A4                     i2u112_40:
  3867  0010A4  6E01               	movwf	?i2_islower,c
  3868  0010A6  6A02               	clrf	?i2_islower+1,c
  3869  0010A8  0012               	return		;funcret
  3870  0010AA                     __end_ofi2_islower:
  3871                           	opt callstack 0
  3872                           
  3873 ;; *************** function i2_pad *****************
  3874 ;; Defined at:
  3875 ;;		line 72 in file "/opt/microchip/xc8/v2.05/pic/sources/c99/common/doprnt.c"
  3876 ;; Parameters:    Size  Location     Type
  3877 ;;  fp              2   17[COMRAM] PTR struct _IO_FILE
  3878 ;;		 -> NULL(0), 
  3879 ;;  buf             2   19[COMRAM] PTR unsigned char 
  3880 ;;		 -> dbuf(32), 
  3881 ;;  p               2   21[COMRAM] int 
  3882 ;; Auto vars:     Size  Location     Type
  3883 ;;  pad             2   26[COMRAM] int 
  3884 ;;  pad             2   24[COMRAM] int 
  3885 ;; Return value:  Size  Location     Type
  3886 ;;                  2   17[COMRAM] int 
  3887 ;; Registers used:
  3888 ;;		wreg, fsr1l, fsr1h, fsr2l, fsr2h, status,2, status,0, cstack
  3889 ;; Tracked objects:
  3890 ;;		On entry : 0/0
  3891 ;;		On exit  : 0/0
  3892 ;;		Unchanged: 0/0
  3893 ;; Data sizes:     COMRAM   BANK0   BANK1   BANK2
  3894 ;;      Params:         6       0       0       0
  3895 ;;      Locals:         4       0       0       0
  3896 ;;      Temps:          1       0       0       0
  3897 ;;      Totals:        11       0       0       0
  3898 ;;Total ram usage:       11 bytes
  3899 ;; Hardware stack levels used:    1
  3900 ;; Hardware stack levels required when called:    3
  3901 ;; This function calls:
  3902 ;;		i2_fputc
  3903 ;;		i2_fputs
  3904 ;;		i2_strlen
  3905 ;; This function is called by:
  3906 ;;		i2_xtoa
  3907 ;; This function uses a non-reentrant model
  3908 ;;
  3909                           
  3910                           	psect	text27
  3911  000C08                     __ptext27:
  3912                           	opt callstack 0
  3913  000C08                     i2_pad:
  3914                           	opt callstack 13
  3915                           
  3916                           ;/opt/microchip/xc8/v2.05/pic/sources/c99/common/doprnt.c: 72: static int pad(FILE *fp, 
      +                          char *buf, int p);/opt/microchip/xc8/v2.05/pic/sources/c99/common/doprnt.c: 73: {;/opt/m
      +                          icrochip/xc8/v2.05/pic/sources/c99/common/doprnt.c: 74:     int i, w;;/opt/microchip/xc8
      +                          /v2.05/pic/sources/c99/common/doprnt.c: 77:     if (flags & (1 << 0)) {
  3917                           
  3918                           ;incstack = 0
  3919  000C08  0100               	movlb	0	; () banked
  3920  000C0A  A1DC               	btfss	_flags& (0+255),0,b
  3921  000C0C  D00A               	goto	i2l1685
  3922                           
  3923                           ; BSR set to: 0
  3924                           ;/opt/microchip/xc8/v2.05/pic/sources/c99/common/doprnt.c: 78:         fputs((const char
      +                           *)buf, fp);
  3925  000C0E  C014  F00B         	movff	i2pad@buf,i2fputs@s
  3926  000C12  C015  F00C         	movff	i2pad@buf+1,i2fputs@s+1
  3927  000C16  C012  F00D         	movff	i2pad@fp,i2fputs@fp
  3928  000C1A  C013  F00E         	movff	i2pad@fp+1,i2fputs@fp+1
  3929  000C1E  ECA2  F007         	call	i2_fputs	;wreg free
  3930  000C22                     i2l1685:
  3931                           
  3932                           ;/opt/microchip/xc8/v2.05/pic/sources/c99/common/doprnt.c: 82:     w = (p < 0) ? 0 : p;
  3933  000C22  BE17               	btfsc	i2pad@p+1,7,c
  3934  000C24  D005               	goto	i2l1689
  3935  000C26  C016  F01B         	movff	i2pad@p,i2pad@w
  3936  000C2A  C017  F01C         	movff	i2pad@p+1,i2pad@w+1
  3937  000C2E  D004               	goto	i2l218
  3938  000C30                     i2l1689:
  3939  000C30  0E00               	movlw	0
  3940  000C32  6E1C               	movwf	i2pad@w+1,c
  3941  000C34  0E00               	movlw	0
  3942  000C36  6E1B               	movwf	i2pad@w,c
  3943  000C38                     i2l218:
  3944                           
  3945                           ;/opt/microchip/xc8/v2.05/pic/sources/c99/common/doprnt.c: 83:     i = 0;
  3946  000C38  0E00               	movlw	0
  3947  000C3A  6E1A               	movwf	i2pad@i+1,c
  3948  000C3C  0E00               	movlw	0
  3949  000C3E  6E19               	movwf	i2pad@i,c
  3950                           
  3951                           ;/opt/microchip/xc8/v2.05/pic/sources/c99/common/doprnt.c: 84:     while (i < w) {
  3952  000C40  D00C               	goto	i2l1695
  3953  000C42                     i2l1691:
  3954                           
  3955                           ;/opt/microchip/xc8/v2.05/pic/sources/c99/common/doprnt.c: 85:         fputc(' ', fp);
  3956  000C42  0E00               	movlw	0
  3957  000C44  6E03               	movwf	i2fputc@c+1,c
  3958  000C46  0E20               	movlw	32
  3959  000C48  6E02               	movwf	i2fputc@c,c
  3960  000C4A  C012  F004         	movff	i2pad@fp,i2fputc@fp
  3961  000C4E  C013  F005         	movff	i2pad@fp+1,i2fputc@fp+1
  3962  000C52  EC88  F006         	call	i2_fputc	;wreg free
  3963                           
  3964                           ;/opt/microchip/xc8/v2.05/pic/sources/c99/common/doprnt.c: 86:         ++i;
  3965  000C56  4A19               	infsnz	i2pad@i,f,c
  3966  000C58  2A1A               	incf	i2pad@i+1,f,c
  3967  000C5A                     i2l1695:
  3968                           
  3969                           ;/opt/microchip/xc8/v2.05/pic/sources/c99/common/doprnt.c: 84:     while (i < w) {
  3970  000C5A  501B               	movf	i2pad@w,w,c
  3971  000C5C  5C19               	subwf	i2pad@i,w,c
  3972  000C5E  501A               	movf	i2pad@i+1,w,c
  3973  000C60  0A80               	xorlw	128
  3974  000C62  6E18               	movwf	??i2_pad& (0+255),c
  3975  000C64  501C               	movf	i2pad@w+1,w,c
  3976  000C66  0A80               	xorlw	128
  3977  000C68  5818               	subwfb	??i2_pad& (0+255),w,c
  3978  000C6A  A0D8               	btfss	status,0,c
  3979  000C6C  D7EA               	goto	i2l1691
  3980                           
  3981                           ;/opt/microchip/xc8/v2.05/pic/sources/c99/common/doprnt.c: 90:     if (!(flags & (1 << 0
      +                          ))) {
  3982  000C6E  0100               	movlb	0	; () banked
  3983  000C70  B1DC               	btfsc	_flags& (0+255),0,b
  3984  000C72  D00A               	goto	i2l1699
  3985                           
  3986                           ; BSR set to: 0
  3987                           ;/opt/microchip/xc8/v2.05/pic/sources/c99/common/doprnt.c: 91:         fputs((const char
      +                           *)buf, fp);
  3988  000C74  C014  F00B         	movff	i2pad@buf,i2fputs@s
  3989  000C78  C015  F00C         	movff	i2pad@buf+1,i2fputs@s+1
  3990  000C7C  C012  F00D         	movff	i2pad@fp,i2fputs@fp
  3991  000C80  C013  F00E         	movff	i2pad@fp+1,i2fputs@fp+1
  3992  000C84  ECA2  F007         	call	i2_fputs	;wreg free
  3993  000C88                     i2l1699:
  3994                           
  3995                           ;/opt/microchip/xc8/v2.05/pic/sources/c99/common/doprnt.c: 94:     return strlen(buf) + 
      +                          w;
  3996  000C88  C014  F001         	movff	i2pad@buf,i2strlen@s
  3997  000C8C  C015  F002         	movff	i2pad@buf+1,i2strlen@s+1
  3998  000C90  EC99  F008         	call	i2_strlen	;wreg free
  3999  000C94  501B               	movf	i2pad@w,w,c
  4000  000C96  2401               	addwf	?i2_strlen,w,c
  4001  000C98  6E12               	movwf	?i2_pad,c
  4002  000C9A  501C               	movf	i2pad@w+1,w,c
  4003  000C9C  2002               	addwfc	?i2_strlen+1,w,c
  4004  000C9E  6E13               	movwf	?i2_pad+1,c
  4005  000CA0  0012               	return		;funcret
  4006  000CA2                     __end_ofi2_pad:
  4007                           	opt callstack 0
  4008                           
  4009 ;; *************** function i2_strlen *****************
  4010 ;; Defined at:
  4011 ;;		line 12 in file "/opt/microchip/xc8/v2.05/pic/sources/c99/common/strlen.c"
  4012 ;; Parameters:    Size  Location     Type
  4013 ;;  s               2    0[COMRAM] PTR const unsigned char 
  4014 ;;		 -> dbuf(32), 
  4015 ;; Auto vars:     Size  Location     Type
  4016 ;;  strlen          2    2[COMRAM] PTR const unsigned char 
  4017 ;;		 -> dbuf(32), 
  4018 ;; Return value:  Size  Location     Type
  4019 ;;                  2    0[COMRAM] unsigned int 
  4020 ;; Registers used:
  4021 ;;		wreg, fsr2l, fsr2h, status,2, status,0
  4022 ;; Tracked objects:
  4023 ;;		On entry : 0/0
  4024 ;;		On exit  : 0/0
  4025 ;;		Unchanged: 0/0
  4026 ;; Data sizes:     COMRAM   BANK0   BANK1   BANK2
  4027 ;;      Params:         2       0       0       0
  4028 ;;      Locals:         2       0       0       0
  4029 ;;      Temps:          0       0       0       0
  4030 ;;      Totals:         4       0       0       0
  4031 ;;Total ram usage:        4 bytes
  4032 ;; Hardware stack levels used:    1
  4033 ;; This function calls:
  4034 ;;		Nothing
  4035 ;; This function is called by:
  4036 ;;		i2_pad
  4037 ;; This function uses a non-reentrant model
  4038 ;;
  4039                           
  4040                           	psect	text28
  4041  001132                     __ptext28:
  4042                           	opt callstack 0
  4043  001132                     i2_strlen:
  4044                           	opt callstack 15
  4045                           
  4046                           ;incstack = 0
  4047  001132  C001  F003         	movff	i2strlen@s,i2strlen@a
  4048  001136  C002  F004         	movff	i2strlen@s+1,i2strlen@a+1
  4049  00113A  D002               	goto	i2l1631
  4050  00113C                     i2l1629:
  4051  00113C  4A01               	infsnz	i2strlen@s,f,c
  4052  00113E  2A02               	incf	i2strlen@s+1,f,c
  4053  001140                     i2l1631:
  4054  001140  C001  FFD9         	movff	i2strlen@s,fsr2l
  4055  001144  C002  FFDA         	movff	i2strlen@s+1,fsr2h
  4056  001148  50DF               	movf	indf2,w,c
  4057  00114A  A4D8               	btfss	status,2,c
  4058  00114C  D7F7               	goto	i2l1629
  4059  00114E  5003               	movf	i2strlen@a,w,c
  4060  001150  5C01               	subwf	i2strlen@s,w,c
  4061  001152  6E01               	movwf	?i2_strlen,c
  4062  001154  5004               	movf	i2strlen@a+1,w,c
  4063  001156  5802               	subwfb	i2strlen@s+1,w,c
  4064  001158  6E02               	movwf	?i2_strlen+1,c
  4065  00115A  0012               	return		;funcret
  4066  00115C                     __end_ofi2_strlen:
  4067                           	opt callstack 0
  4068                           
  4069 ;; *************** function i2_fputs *****************
  4070 ;; Defined at:
  4071 ;;		line 8 in file "/opt/microchip/xc8/v2.05/pic/sources/c99/common/nf_fputs.c"
  4072 ;; Parameters:    Size  Location     Type
  4073 ;;  s               2   10[COMRAM] PTR const unsigned char 
  4074 ;;		 -> dbuf(32), 
  4075 ;;  fp              2   12[COMRAM] PTR struct _IO_FILE
  4076 ;;		 -> NULL(0), 
  4077 ;; Auto vars:     Size  Location     Type
  4078 ;;  fputs           2   15[COMRAM] int 
  4079 ;;  fputs           1   14[COMRAM] unsigned char 
  4080 ;; Return value:  Size  Location     Type
  4081 ;;                  2   10[COMRAM] int 
  4082 ;; Registers used:
  4083 ;;		wreg, fsr1l, fsr1h, fsr2l, fsr2h, status,2, status,0, cstack
  4084 ;; Tracked objects:
  4085 ;;		On entry : 0/0
  4086 ;;		On exit  : 0/0
  4087 ;;		Unchanged: 0/0
  4088 ;; Data sizes:     COMRAM   BANK0   BANK1   BANK2
  4089 ;;      Params:         4       0       0       0
  4090 ;;      Locals:         3       0       0       0
  4091 ;;      Temps:          0       0       0       0
  4092 ;;      Totals:         7       0       0       0
  4093 ;;Total ram usage:        7 bytes
  4094 ;; Hardware stack levels used:    1
  4095 ;; Hardware stack levels required when called:    2
  4096 ;; This function calls:
  4097 ;;		i2_fputc
  4098 ;; This function is called by:
  4099 ;;		i2_pad
  4100 ;; This function uses a non-reentrant model
  4101 ;;
  4102                           
  4103                           	psect	text29
  4104  000F44                     __ptext29:
  4105                           	opt callstack 0
  4106  000F44                     i2_fputs:
  4107                           	opt callstack 13
  4108                           
  4109                           ;incstack = 0
  4110  000F44  0E00               	movlw	0
  4111  000F46  6E11               	movwf	i2fputs@i+1,c
  4112  000F48  0E00               	movlw	0
  4113  000F4A  6E10               	movwf	i2fputs@i,c
  4114  000F4C  D00B               	goto	i2l1625
  4115  000F4E                     i2l1621:
  4116  000F4E  C00F  F002         	movff	i2fputs@c,i2fputc@c
  4117  000F52  6A03               	clrf	i2fputc@c+1,c
  4118  000F54  C00D  F004         	movff	i2fputs@fp,i2fputc@fp
  4119  000F58  C00E  F005         	movff	i2fputs@fp+1,i2fputc@fp+1
  4120  000F5C  EC88  F006         	call	i2_fputc	;wreg free
  4121  000F60  4A10               	infsnz	i2fputs@i,f,c
  4122  000F62  2A11               	incf	i2fputs@i+1,f,c
  4123  000F64                     i2l1625:
  4124  000F64  5010               	movf	i2fputs@i,w,c
  4125  000F66  240B               	addwf	i2fputs@s,w,c
  4126  000F68  6ED9               	movwf	fsr2l,c
  4127  000F6A  5011               	movf	i2fputs@i+1,w,c
  4128  000F6C  200C               	addwfc	i2fputs@s+1,w,c
  4129  000F6E  6EDA               	movwf	fsr2h,c
  4130  000F70  50DF               	movf	indf2,w,c
  4131  000F72  6E0F               	movwf	i2fputs@c,c
  4132  000F74  500F               	movf	i2fputs@c,w,c
  4133  000F76  B4D8               	btfsc	status,2,c
  4134  000F78  0012               	return	
  4135  000F7A  D7E9               	goto	i2l1621
  4136  000F7C                     __end_ofi2_fputs:
  4137                           	opt callstack 0
  4138                           
  4139 ;; *************** function i2_fputc *****************
  4140 ;; Defined at:
  4141 ;;		line 8 in file "/opt/microchip/xc8/v2.05/pic/sources/c99/common/nf_fputc.c"
  4142 ;; Parameters:    Size  Location     Type
  4143 ;;  c               2    1[COMRAM] int 
  4144 ;;  fp              2    3[COMRAM] PTR struct _IO_FILE
  4145 ;;		 -> NULL(0), 
  4146 ;; Auto vars:     Size  Location     Type
  4147 ;;		None
  4148 ;; Return value:  Size  Location     Type
  4149 ;;                  2    1[COMRAM] int 
  4150 ;; Registers used:
  4151 ;;		wreg, fsr1l, fsr1h, fsr2l, fsr2h, status,2, status,0, cstack
  4152 ;; Tracked objects:
  4153 ;;		On entry : 0/0
  4154 ;;		On exit  : 0/0
  4155 ;;		Unchanged: 0/0
  4156 ;; Data sizes:     COMRAM   BANK0   BANK1   BANK2
  4157 ;;      Params:         4       0       0       0
  4158 ;;      Locals:         0       0       0       0
  4159 ;;      Temps:          5       0       0       0
  4160 ;;      Totals:         9       0       0       0
  4161 ;;Total ram usage:        9 bytes
  4162 ;; Hardware stack levels used:    1
  4163 ;; Hardware stack levels required when called:    1
  4164 ;; This function calls:
  4165 ;;		i2_putch
  4166 ;; This function is called by:
  4167 ;;		i2_pad
  4168 ;;		i2_vfpfcnvrt
  4169 ;;		i2_fputs
  4170 ;; This function uses a non-reentrant model
  4171 ;;
  4172                           
  4173                           	psect	text30
  4174  000D10                     __ptext30:
  4175                           	opt callstack 0
  4176  000D10                     i2_fputc:
  4177                           	opt callstack 13
  4178                           
  4179                           ;incstack = 0
  4180  000D10  5004               	movf	i2fputc@fp,w,c
  4181  000D12  1005               	iorwf	i2fputc@fp+1,w,c
  4182  000D14  B4D8               	btfsc	status,2,c
  4183  000D16  D004               	goto	i2u102_40
  4184  000D18  5004               	movf	i2fputc@fp,w,c
  4185  000D1A  1005               	iorwf	i2fputc@fp+1,w,c
  4186  000D1C  A4D8               	btfss	status,2,c
  4187  000D1E  D004               	goto	i2l1589
  4188  000D20                     i2u102_40:
  4189  000D20  5002               	movf	i2fputc@c,w,c
  4190  000D22  ECFE  F008         	call	i2_putch
  4191  000D26  0012               	return	
  4192  000D28                     i2l1589:
  4193  000D28  EE20 F004          	lfsr	2,4
  4194  000D2C  5004               	movf	i2fputc@fp,w,c
  4195  000D2E  26D9               	addwf	fsr2l,f,c
  4196  000D30  5005               	movf	i2fputc@fp+1,w,c
  4197  000D32  22DA               	addwfc	fsr2h,f,c
  4198  000D34  50DE               	movf	postinc2,w,c
  4199  000D36  10DE               	iorwf	postinc2,w,c
  4200  000D38  B4D8               	btfsc	status,2,c
  4201  000D3A  D016               	goto	i2u104_40
  4202  000D3C  EE20 F004          	lfsr	2,4
  4203  000D40  5004               	movf	i2fputc@fp,w,c
  4204  000D42  26D9               	addwf	fsr2l,f,c
  4205  000D44  5005               	movf	i2fputc@fp+1,w,c
  4206  000D46  22DA               	addwfc	fsr2h,f,c
  4207  000D48  EE10 F002          	lfsr	1,2
  4208  000D4C  5004               	movf	i2fputc@fp,w,c
  4209  000D4E  26E1               	addwf	fsr1l,f,c
  4210  000D50  5005               	movf	i2fputc@fp+1,w,c
  4211  000D52  22E2               	addwfc	fsr1h,f,c
  4212  000D54  50DE               	movf	postinc2,w,c
  4213  000D56  5CE6               	subwf	postinc1,w,c
  4214  000D58  50E6               	movf	postinc1,w,c
  4215  000D5A  0A80               	xorlw	128
  4216  000D5C  6E0A               	movwf	(??i2_fputc+4)& (0+255),c
  4217  000D5E  50DE               	movf	postinc2,w,c
  4218  000D60  0A80               	xorlw	128
  4219  000D62  580A               	subwfb	(??i2_fputc+4)& (0+255),w,c
  4220  000D64  B0D8               	btfsc	status,0,c
  4221  000D66  0012               	return	
  4222  000D68                     i2u104_40:
  4223  000D68  EE20 F002          	lfsr	2,2
  4224  000D6C  5004               	movf	i2fputc@fp,w,c
  4225  000D6E  26D9               	addwf	fsr2l,f,c
  4226  000D70  5005               	movf	i2fputc@fp+1,w,c
  4227  000D72  22DA               	addwfc	fsr2h,f,c
  4228  000D74  2ADE               	incf	postinc2,f,c
  4229  000D76  0E00               	movlw	0
  4230  000D78  22DD               	addwfc	postdec2,f,c
  4231  000D7A  0012               	return		;funcret
  4232  000D7C                     __end_ofi2_fputc:
  4233                           	opt callstack 0
  4234                           
  4235 ;; *************** function i2_putch *****************
  4236 ;; Defined at:
  4237 ;;		line 212 in file "user.c"
  4238 ;; Parameters:    Size  Location     Type
  4239 ;;  byte            1    wreg     unsigned char 
  4240 ;; Auto vars:     Size  Location     Type
  4241 ;;  byte            1    0[COMRAM] unsigned char 
  4242 ;; Return value:  Size  Location     Type
  4243 ;;                  1    wreg      void 
  4244 ;; Registers used:
  4245 ;;		wreg, status,2
  4246 ;; Tracked objects:
  4247 ;;		On entry : 0/0
  4248 ;;		On exit  : 0/0
  4249 ;;		Unchanged: 0/0
  4250 ;; Data sizes:     COMRAM   BANK0   BANK1   BANK2
  4251 ;;      Params:         0       0       0       0
  4252 ;;      Locals:         1       0       0       0
  4253 ;;      Temps:          0       0       0       0
  4254 ;;      Totals:         1       0       0       0
  4255 ;;Total ram usage:        1 bytes
  4256 ;; Hardware stack levels used:    1
  4257 ;; This function calls:
  4258 ;;		Nothing
  4259 ;; This function is called by:
  4260 ;;		i2_fputc
  4261 ;; This function uses a non-reentrant model
  4262 ;;
  4263                           
  4264                           	psect	text31
  4265  0011FC                     __ptext31:
  4266                           	opt callstack 0
  4267  0011FC                     i2_putch:
  4268                           	opt callstack 13
  4269                           
  4270                           ;incstack = 0
  4271                           ;i2putch@byte stored from wreg
  4272  0011FC  6E01               	movwf	i2putch@byte,c
  4273                           
  4274                           ;user.c: 213:     TXSTA = 0x26;
  4275  0011FE  0E26               	movlw	38
  4276  001200  6EAC               	movwf	4012,c	;volatile
  4277                           
  4278                           ;user.c: 214:     RCSTA1bits.SPEN = 1;
  4279  001202  8EAB               	bsf	4011,7,c	;volatile
  4280  001204                     i2l184:
  4281  001204  A89E               	btfss	3998,4,c	;volatile
  4282  001206  D7FE               	goto	i2l184
  4283                           
  4284                           ;user.c: 216:     TXREG = byte;
  4285  001208  C001  FFAD         	movff	i2putch@byte,4013	;volatile
  4286  00120C  0012               	return		;funcret
  4287  00120E                     __end_ofi2_putch:
  4288                           	opt callstack 0
  4289                           
  4290 ;; *************** function i2_isupper *****************
  4291 ;; Defined at:
  4292 ;;		line 5 in file "/opt/microchip/xc8/v2.05/pic/sources/c99/common/isupper.c"
  4293 ;; Parameters:    Size  Location     Type
  4294 ;;  c               2    0[COMRAM] int 
  4295 ;; Auto vars:     Size  Location     Type
  4296 ;;		None
  4297 ;; Return value:  Size  Location     Type
  4298 ;;                  2    0[COMRAM] int 
  4299 ;; Registers used:
  4300 ;;		wreg, status,2, status,0
  4301 ;; Tracked objects:
  4302 ;;		On entry : 0/0
  4303 ;;		On exit  : 0/0
  4304 ;;		Unchanged: 0/0
  4305 ;; Data sizes:     COMRAM   BANK0   BANK1   BANK2
  4306 ;;      Params:         2       0       0       0
  4307 ;;      Locals:         0       0       0       0
  4308 ;;      Temps:          4       0       0       0
  4309 ;;      Totals:         6       0       0       0
  4310 ;;Total ram usage:        6 bytes
  4311 ;; Hardware stack levels used:    1
  4312 ;; This function calls:
  4313 ;;		Nothing
  4314 ;; This function is called by:
  4315 ;;		i2_xtoa
  4316 ;; This function uses a non-reentrant model
  4317 ;;
  4318                           
  4319                           	psect	text32
  4320  0010AA                     __ptext32:
  4321                           	opt callstack 0
  4322  0010AA                     i2_isupper:
  4323                           	opt callstack 16
  4324                           
  4325                           ;incstack = 0
  4326  0010AA  0EBF               	movlw	191
  4327  0010AC  6E03               	movwf	??i2_isupper& (0+255),c
  4328  0010AE  0EFF               	movlw	255
  4329  0010B0  6E04               	movwf	(??i2_isupper+1)& (0+255),c
  4330  0010B2  C001  F005         	movff	i2isupper@c,??i2_isupper+2
  4331  0010B6  C002  F006         	movff	i2isupper@c+1,??i2_isupper+3
  4332  0010BA  5003               	movf	??i2_isupper,w,c
  4333  0010BC  2605               	addwf	??i2_isupper+2,f,c
  4334  0010BE  5004               	movf	??i2_isupper+1,w,c
  4335  0010C0  2206               	addwfc	??i2_isupper+3,f,c
  4336  0010C2  5006               	movf	??i2_isupper+3,w,c
  4337  0010C4  E106               	bnz	i2u130_40
  4338  0010C6  0E1A               	movlw	26
  4339  0010C8  5C05               	subwf	??i2_isupper+2,w,c
  4340  0010CA  B0D8               	btfsc	status,0,c
  4341  0010CC  D002               	goto	i2u130_40
  4342  0010CE  0E01               	movlw	1
  4343  0010D0  D001               	goto	i2u131_40
  4344  0010D2                     i2u130_40:
  4345  0010D2  0E00               	movlw	0
  4346  0010D4                     i2u131_40:
  4347  0010D4  6E01               	movwf	?i2_isupper,c
  4348  0010D6  6A02               	clrf	?i2_isupper+1,c
  4349  0010D8  0012               	return		;funcret
  4350  0010DA                     __end_ofi2_isupper:
  4351                           	opt callstack 0
  4352                           
  4353 ;; *************** function i2_isalpha *****************
  4354 ;; Defined at:
  4355 ;;		line 5 in file "/opt/microchip/xc8/v2.05/pic/sources/c99/common/isalpha.c"
  4356 ;; Parameters:    Size  Location     Type
  4357 ;;  c               2    0[COMRAM] int 
  4358 ;; Auto vars:     Size  Location     Type
  4359 ;;		None
  4360 ;; Return value:  Size  Location     Type
  4361 ;;                  2    0[COMRAM] int 
  4362 ;; Registers used:
  4363 ;;		wreg, status,2, status,0
  4364 ;; Tracked objects:
  4365 ;;		On entry : 0/0
  4366 ;;		On exit  : 0/0
  4367 ;;		Unchanged: 0/0
  4368 ;; Data sizes:     COMRAM   BANK0   BANK1   BANK2
  4369 ;;      Params:         2       0       0       0
  4370 ;;      Locals:         0       0       0       0
  4371 ;;      Temps:          4       0       0       0
  4372 ;;      Totals:         6       0       0       0
  4373 ;;Total ram usage:        6 bytes
  4374 ;; Hardware stack levels used:    1
  4375 ;; This function calls:
  4376 ;;		Nothing
  4377 ;; This function is called by:
  4378 ;;		i2_xtoa
  4379 ;; This function uses a non-reentrant model
  4380 ;;
  4381                           
  4382                           	psect	text33
  4383  000FB2                     __ptext33:
  4384                           	opt callstack 0
  4385  000FB2                     i2_isalpha:
  4386                           	opt callstack 16
  4387                           
  4388                           ;incstack = 0
  4389  000FB2  0E9F               	movlw	159
  4390  000FB4  6E03               	movwf	??i2_isalpha& (0+255),c
  4391  000FB6  0EFF               	movlw	255
  4392  000FB8  6E04               	movwf	(??i2_isalpha+1)& (0+255),c
  4393  000FBA  0E20               	movlw	32
  4394  000FBC  1001               	iorwf	i2isalpha@c,w,c
  4395  000FBE  6E05               	movwf	(??i2_isalpha+2)& (0+255),c
  4396  000FC0  0E00               	movlw	0
  4397  000FC2  1002               	iorwf	i2isalpha@c+1,w,c
  4398  000FC4  6E06               	movwf	(??i2_isalpha+3)& (0+255),c
  4399  000FC6  5003               	movf	??i2_isalpha,w,c
  4400  000FC8  2605               	addwf	??i2_isalpha+2,f,c
  4401  000FCA  5004               	movf	??i2_isalpha+1,w,c
  4402  000FCC  2206               	addwfc	??i2_isalpha+3,f,c
  4403  000FCE  5006               	movf	??i2_isalpha+3,w,c
  4404  000FD0  E106               	bnz	i2u128_40
  4405  000FD2  0E1A               	movlw	26
  4406  000FD4  5C05               	subwf	??i2_isalpha+2,w,c
  4407  000FD6  B0D8               	btfsc	status,0,c
  4408  000FD8  D002               	goto	i2u128_40
  4409  000FDA  0E01               	movlw	1
  4410  000FDC  D001               	goto	i2u129_40
  4411  000FDE                     i2u128_40:
  4412  000FDE  0E00               	movlw	0
  4413  000FE0                     i2u129_40:
  4414  000FE0  6E01               	movwf	?i2_isalpha,c
  4415  000FE2  6A02               	clrf	?i2_isalpha+1,c
  4416  000FE4  0012               	return		;funcret
  4417  000FE6                     __end_ofi2_isalpha:
  4418                           	opt callstack 0
  4419                           
  4420                           	psect	rparam
  4421  0000                     
  4422                           	psect	temp
  4423  00005F                     btemp:
  4424                           	opt callstack 0
  4425  00005F                     	ds	1
  4426  0000                     int$flags	set	btemp
  4427  0000                     wtemp8	set	btemp+1
  4428  0000                     ttemp5	set	btemp+1
  4429  0000                     ttemp6	set	btemp+4
  4430  0000                     ttemp7	set	btemp+8
  4431                           tosu	equ	0xFFF
  4432                           tosh	equ	0xFFE
  4433                           tosl	equ	0xFFD
  4434                           stkptr	equ	0xFFC
  4435                           pclatu	equ	0xFFB
  4436                           pclath	equ	0xFFA
  4437                           pcl	equ	0xFF9
  4438                           tblptru	equ	0xFF8
  4439                           tblptrh	equ	0xFF7
  4440                           tblptrl	equ	0xFF6
  4441                           tablat	equ	0xFF5
  4442                           prodh	equ	0xFF4
  4443                           prodl	equ	0xFF3
  4444                           indf0	equ	0xFEF
  4445                           postinc0	equ	0xFEE
  4446                           postdec0	equ	0xFED
  4447                           preinc0	equ	0xFEC
  4448                           plusw0	equ	0xFEB
  4449                           fsr0h	equ	0xFEA
  4450                           fsr0l	equ	0xFE9
  4451                           wreg	equ	0xFE8
  4452                           indf1	equ	0xFE7
  4453                           postinc1	equ	0xFE6
  4454                           postdec1	equ	0xFE5
  4455                           preinc1	equ	0xFE4
  4456                           plusw1	equ	0xFE3
  4457                           fsr1h	equ	0xFE2
  4458                           fsr1l	equ	0xFE1
  4459                           bsr	equ	0xFE0
  4460                           indf2	equ	0xFDF
  4461                           postinc2	equ	0xFDE
  4462                           postdec2	equ	0xFDD
  4463                           preinc2	equ	0xFDC
  4464                           plusw2	equ	0xFDB
  4465                           fsr2h	equ	0xFDA
  4466                           fsr2l	equ	0xFD9
  4467                           status	equ	0xFD8


Data Sizes:
    Strings     31
    Constant    0
    Data        0
    BSS         44
    Persistent  0
    Stack       0

Auto Spaces:
    Space          Size  Autos    Used
    COMRAM           94     94      94
    BANK0           160    120     132
    BANK1           256      0      32
    BANK2           256      0       0

Pointer List with Targets:

    strlen@s	PTR const unsigned char  size(2) Largest target is 32
		 -> dbuf(BANK1[32]), 

    strlen@a	PTR const unsigned char  size(2) Largest target is 32
		 -> dbuf(BANK1[32]), 

    printf@fmt	PTR const unsigned char  size(2) Largest target is 12
		 -> STR_3(CODE[10]), STR_2(CODE[12]), STR_1(CODE[9]), 

    printf@ap	PTR void [1] size(2) Largest target is 2
		 -> ?_printf(BANK0[2]), 

    fputs@s	PTR const unsigned char  size(2) Largest target is 32
		 -> dbuf(BANK1[32]), 

    fputs@fp	PTR struct _IO_FILE size(2) Largest target is 0
		 -> NULL(NULL[0]), 

    S1283_IO_FILE$buffer	PTR unsigned char  size(2) Largest target is 0

    fputc@fp.buffer	PTR unsigned char  size(2) Largest target is 0

    fputc@fp	PTR struct _IO_FILE size(2) Largest target is 0
		 -> NULL(NULL[0]), 

    vfprintf@ap	PTR PTR void  size(2) Largest target is 2
		 -> printf@ap(BANK0[2]), 

    vfprintf@fp	PTR struct _IO_FILE size(2) Largest target is 0
		 -> NULL(NULL[0]), 

    vfprintf@fmt	PTR const unsigned char  size(2) Largest target is 12
		 -> STR_3(CODE[10]), STR_2(CODE[12]), STR_1(CODE[9]), 

    vfprintf@cfmt	PTR unsigned char  size(2) Largest target is 12
		 -> STR_3(CODE[10]), STR_2(CODE[12]), STR_1(CODE[9]), 

    vfpfcnvrt@fp	PTR struct _IO_FILE size(2) Largest target is 0
		 -> NULL(NULL[0]), 

    vfpfcnvrt@ap	PTR PTR void  size(2) Largest target is 2
		 -> printf@ap(BANK0[2]), 

    vfpfcnvrt@fmt	PTR PTR unsigned char  size(2) Largest target is 2
		 -> vfprintf@cfmt(BANK0[2]), 

    xtoa@fp	PTR struct _IO_FILE size(2) Largest target is 0
		 -> NULL(NULL[0]), 

    pad@fp	PTR struct _IO_FILE size(2) Largest target is 0
		 -> NULL(NULL[0]), 

    pad@buf	PTR unsigned char  size(2) Largest target is 32
		 -> dbuf(BANK1[32]), 


Critical Paths under _main in COMRAM

    None.

Critical Paths under _low_isr in COMRAM

    None.

Critical Paths under _high_isr in COMRAM

    i2_printf->i2_vfprintf
    i2_vfprintf->i2_vfpfcnvrt
    i2_vfpfcnvrt->i2_xtoa
    i2_xtoa->i2_pad
    i2_toupper->i2_islower
    i2_pad->i2_fputs
    i2_fputs->i2_fputc
    i2_fputc->i2_putch

Critical Paths under _main in BANK0

    _main->_printf
    _printf->_vfprintf
    _vfprintf->_vfpfcnvrt
    _vfpfcnvrt->_xtoa
    _xtoa->_pad
    _toupper->_islower
    _pad->_fputs
    _fputs->_fputc
    _fputc->_putch

Critical Paths under _low_isr in BANK0

    None.

Critical Paths under _high_isr in BANK0

    _high_isr->i2_printf

Critical Paths under _main in BANK1

    None.

Critical Paths under _low_isr in BANK1

    None.

Critical Paths under _high_isr in BANK1

    None.

Critical Paths under _main in BANK2

    None.

Critical Paths under _low_isr in BANK2

    None.

Critical Paths under _high_isr in BANK2

    None.

Call Graph Tables:

 ---------------------------------------------------------------------------------
 (Depth) Function   	        Calls       Base Space   Used Autos Params    Refs
 ---------------------------------------------------------------------------------
 (0) _main                                                 3     3      0    6199
                                            118 BANK0      2     2      0
                _ConfigureOscillator
                            _InitApp
                             _printf
                               _test
 ---------------------------------------------------------------------------------
 (1) _test                                                 0     0      0       0
 ---------------------------------------------------------------------------------
 (1) _printf                                               8     4      4    6198
                                            110 BANK0      8     4      4
                           _vfprintf
 ---------------------------------------------------------------------------------
 (2) _vfprintf                                             8     2      6    5940
                                            102 BANK0      8     2      6
                          _vfpfcnvrt
 ---------------------------------------------------------------------------------
 (3) _vfpfcnvrt                                           44    38      6    5569
                                             83 BANK0     19    13      6
                              _fputc
                               _xtoa
 ---------------------------------------------------------------------------------
 (4) _xtoa                                                39    28     11    4175
                                             44 BANK0     39    28     11
                            _isalpha
                            _isupper
                                _pad
                            _toupper
 ---------------------------------------------------------------------------------
 (5) _toupper                                              8     6      2     412
                                             22 BANK0      8     6      2
                            _islower
 ---------------------------------------------------------------------------------
 (6) _islower                                              6     4      2     161
                                             16 BANK0      6     4      2
 ---------------------------------------------------------------------------------
 (5) _pad                                                 11     5      6    2621
                                             33 BANK0     11     5      6
                              _fputc
                              _fputs
                             _strlen
 ---------------------------------------------------------------------------------
 (6) _strlen                                               4     2      2     166
                                             16 BANK0      4     2      2
 ---------------------------------------------------------------------------------
 (6) _fputs                                                7     3      4    1191
                                             26 BANK0      7     3      4
                              _fputc
 ---------------------------------------------------------------------------------
 (7) _fputc                                                9     5      4     790
                                             17 BANK0      9     5      4
                              _putch
 ---------------------------------------------------------------------------------
 (8) _putch                                                1     1      0      22
                                             16 BANK0      1     1      0
 ---------------------------------------------------------------------------------
 (5) _isupper                                              6     4      2     161
                                             16 BANK0      6     4      2
 ---------------------------------------------------------------------------------
 (5) _isalpha                                              6     4      2     161
                                             16 BANK0      6     4      2
 ---------------------------------------------------------------------------------
 (1) _InitApp                                              0     0      0       0
                         _init_timer
                         _init_usart
 ---------------------------------------------------------------------------------
 (2) _init_usart                                           0     0      0       0
 ---------------------------------------------------------------------------------
 (2) _init_timer                                           0     0      0       0
 ---------------------------------------------------------------------------------
 (1) _ConfigureOscillator                                  0     0      0       0
 ---------------------------------------------------------------------------------
 Estimated maximum stack depth 8
 ---------------------------------------------------------------------------------
 (Depth) Function   	        Calls       Base Space   Used Autos Params    Refs
 ---------------------------------------------------------------------------------
 (9) _low_isr                                              1     1      0       0
                                             15 BANK0      1     1      0
 ---------------------------------------------------------------------------------
 Estimated maximum stack depth 9
 ---------------------------------------------------------------------------------
 (Depth) Function   	        Calls       Base Space   Used Autos Params    Refs
 ---------------------------------------------------------------------------------
 (10) _high_isr                                            9     9      0    3502
                                              6 BANK0      9     9      0
                           i2_printf
 ---------------------------------------------------------------------------------
 (11) i2_printf                                            6     4      2    3502
                                              0 BANK0      6     4      2
                         i2_vfprintf
 ---------------------------------------------------------------------------------
 (12) i2_vfprintf                                          8     2      6    3422
                                             86 COMRAM     8     2      6
                        i2_vfpfcnvrt
 ---------------------------------------------------------------------------------
 (13) i2_vfpfcnvrt                                        44    38      6    3217
                                             67 COMRAM    19    13      6
                            i2_fputc
                             i2_xtoa
 ---------------------------------------------------------------------------------
 (14) i2_xtoa                                             39    28     11    2373
                                             28 COMRAM    39    28     11
                          i2_isalpha
                          i2_isupper
                              i2_pad
                          i2_toupper
 ---------------------------------------------------------------------------------
 (15) i2_toupper                                           8     6      2     186
                                              6 COMRAM     8     6      2
                          i2_islower
 ---------------------------------------------------------------------------------
 (16) i2_islower                                           6     4      2      48
                                              0 COMRAM     6     4      2
 ---------------------------------------------------------------------------------
 (15) i2_pad                                              11     5      6    1421
                                             17 COMRAM    11     5      6
                            i2_fputc
                            i2_fputs
                           i2_strlen
 ---------------------------------------------------------------------------------
 (16) i2_strlen                                            4     2      2     116
                                              0 COMRAM     4     2      2
 ---------------------------------------------------------------------------------
 (16) i2_fputs                                             7     3      4     591
                                             10 COMRAM     7     3      4
                            i2_fputc
 ---------------------------------------------------------------------------------
 (17) i2_fputc                                             9     5      4     390
                                              1 COMRAM     9     5      4
                            i2_putch
 ---------------------------------------------------------------------------------
 (18) i2_putch                                             1     1      0      22
                                              0 COMRAM     1     1      0
 ---------------------------------------------------------------------------------
 (15) i2_isupper                                           6     4      2      48
                                              0 COMRAM     6     4      2
 ---------------------------------------------------------------------------------
 (15) i2_isalpha                                           6     4      2      48
                                              0 COMRAM     6     4      2
 ---------------------------------------------------------------------------------
 Estimated maximum stack depth 18
 ---------------------------------------------------------------------------------

 Call Graph Graphs:

 _main (ROOT)
   _ConfigureOscillator
   _InitApp
     _init_timer
     _init_usart
   _printf
     _vfprintf
       _vfpfcnvrt
         _fputc
           _putch
         _xtoa
           _isalpha
           _isupper
           _pad
             _fputc
               _putch
             _fputs
               _fputc
                 _putch
             _strlen
           _toupper
             _islower
   _test

 _low_isr (ROOT)

 _high_isr (ROOT)
   i2_printf
     i2_vfprintf
       i2_vfpfcnvrt
         i2_fputc
           i2_putch
         i2_xtoa
           i2_isalpha
           i2_isupper
           i2_pad
             i2_fputc
               i2_putch
             i2_fputs
               i2_fputc
                 i2_putch
             i2_strlen
           i2_toupper
             i2_islower

 Address spaces:
Name               Size   Autos  Total    Cost      Usage
BIGRAM             2FF      0       0      10        0.0%
EEDATA             100      0       0       0        0.0%
BITBANK2           100      0       0       8        0.0%
BANK2              100      0       0       9        0.0%
BITBANK1           100      0       0       6        0.0%
BANK1              100      0      20       7       12.5%
BITBANK0            A0      0       0       4        0.0%
BANK0               A0     78      84       5       82.5%
BITCOMRAM           5E      0       0       0        0.0%
COMRAM              5E     5E      5E       1      100.0%
BITSFR               0      0       0     200        0.0%
SFR                  0      0       0     200        0.0%
STACK                0      0       0       2        0.0%
NULL                 0      0       0       0        0.0%
ABS                  0      0     102       3        0.0%
DATA                 0      0     102      11        0.0%
CODE                 0      0       0       0        0.0%


Microchip Technology PIC18 Macro Assembler V2.05 build -831301201 
Symbol Table                                                                                   Thu Apr 11 01:34:00 2019

                          bsr 000FE0                  __CFG_CP0$OFF 000000                  __CFG_CP1$OFF 000000  
                __CFG_CP2$OFF 000000                  __CFG_CP3$OFF 000000                   __CFG_OSC$HS 000000  
                         l230 0348                           l218 0B9C                           l228 0340  
                         l184 11F2                           l991 0E6A                  __CFG_CPB$OFF 000000  
                __CFG_CPD$OFF 000000                           u980 0CB4                           _pad 0B6A  
                         wreg 000FE8                    _TXSTA1bits 000FAC                  __CFG_IESO$ON 000000  
         __end_ofi2_vfpfcnvrt 0AC6                  __CFG_LVP$OFF 000000                          l2041 11B6  
                        l1603 0F2C                          l1607 10E4                          l1609 10EA  
                        l1651 0BA6                          l1731 035C                          l1645 0B84  
                        l1575 0CBC                          l1655 0BC0                          l1649 0B94  
                        l1745 03AE                          l1737 038C                          l1659 0BEC  
                        l1599 0F14                          l1783 052A                          l1759 043C  
                        l1767 04B4                          l1881 08CE                          l1875 0892  
                        l1891 08F2                          l1971 0DB6                          l1885 08DA  
                        ?_pad 0081                          l1969 0D90                          STR_1 0317  
                        STR_2 0301                          STR_3 030D                          u1000 0CFC  
                        u1200 0FAC                          u1210 0E52                          u1220 0E54  
                        u1070 1010                          u1080 1012                          u1400 03E2  
                        u1170 1042                          u1180 1044                          u1500 04FA  
                        u1420 041A                          _LATA 000F89                          u1190 0FAA  
                        u1430 041C                          _LATB 000F8A                          u1360 0336  
                        _LATD 000F8C                          _LATE 000F8D                          u1450 0490  
                        u1460 04C6                          u1380 03AA                          u1390 03E0  
                        u1710 07F8                          u1455 047E                          u1480 04E8  
                        u1481 04E6                          u1490 04F6                          i2l21 0B46  
                        _TMR0 000FD6                          _TXIF 007CF4                 __CFG_FCMEN$ON 000000  
                        _dbuf 0100                          _main 11AA                          _prec 00DA  
                        _nout 00D6                          _test 0E74                          pad@i 0088  
                        pad@p 0085                          fsr1h 000FE2                          fsr2h 000FDA  
                        indf2 000FDF                          fsr1l 000FE1                          pad@w 008A  
                        fsr2l 000FD9                          btemp 005F                          _xtoa 0322  
                        start 0026               __end_ofi2_fputc 0D7C               __end_ofi2_fputs 0F7C  
             __end_ofi2_putch 120E                  ___param_bank 000000               __end_of_InitApp 121C  
                  i2_xtoa$805 0030                    i2_xtoa$806 0032                         ??_pad 0087  
                  i2_vfprintf 0DD2                         ?_main 0001                         ?_test 0001  
                       ?_xtoa 008C                         _PDC0H 000F78                         _PDC0L 000F79  
                       i2l230 057A                         i2l218 0C38                         i2l228 0572  
                       i2l184 1204                         i2l991 0EFE                  vfpfcnvrt@fmt 00B5  
                vfpfcnvrt@llu 00BD                         _PORTA 000F80                         _PORTB 000F81  
                       _PORTD 000F83                         _PORTE 000F84                         _TRISB 000F93  
                       _TRISD 000F95                         _TXREG 000FAD                         _TXSTA 000FAC  
                       i2_pad 0C08           _ConfigureOscillator 121C                 __CFG_WRT0$OFF 000000  
               __CFG_WRT1$OFF 000000                 __CFG_WRT2$OFF 000000                 __CFG_WRT3$OFF 000000  
              __CFG_EBTR0$OFF 000000                __CFG_EBTR1$OFF 000000                __CFG_EBTR2$OFF 000000  
              __CFG_EBTR3$OFF 000000                 __CFG_WRTB$OFF 000000                 __CFG_WRTC$OFF 000000  
               __CFG_WRTD$OFF 000000                    i2isalpha@c 0001                __CFG_EBTRB$OFF 000000  
                       _flags 00DC                         _fputc 0CA2               __end_of_isalpha 0FB2  
                       _fputs 0F08                         pad@fp 0081                         _width 00D8  
                       _putch 11E8               __end_of_islower 1018               __end_of_low_isr 0026  
              __CFG_BOREN$OFF 000000               __end_of_isupper 104A                         tablat 000FF5  
                       ttemp5 0060                         ttemp6 0063                         ttemp7 0067  
                  i2islower@c 0001                         status 000FD8                         wtemp8 0060  
                       xtoa@c 00B1                         xtoa@d 008E                         xtoa@i 00AF  
                       xtoa@n 00A7                         xtoa@p 00A3                         xtoa@w 00A5  
                       xtoa@x 0096               __end_of_toupper 0E74          ?_ConfigureOscillator 0001  
                  i2isupper@c 0001              __end_ofi2_printf 107A                  _toupper$1335 007C  
            __end_ofi2_strlen 115C                __CFG_MCLRE$OFF 000000               __initialization 1108  
              __CFG_HPOL$HIGH 000000                  __end_of_main 11CE                  __end_of_test 0EBE  
                  i2printf@ap 0064                  __end_of_xtoa 0554            __size_ofi2_isalpha 0034  
                 i2_vfpfcnvrt 0928            __size_ofi2_islower 0030                 i2vfpfcnvrt@ap 0048  
               i2vfpfcnvrt@fp 0044                __CFG_LPOL$HIGH 000000            __size_ofi2_isupper 0030  
                      ??_main 00D6                        ??_test 0070                        ??_xtoa 0097  
               __activetblptr 000001            __size_ofi2_toupper 004A                        ?i2_pad 0012  
                  i2toupper@c 0007                        ?_fputc 0071                        ?_fputs 007A  
                      ?_putch 0001                        i2l2033 0B44                        i2l1621 0F4E  
                      i2l1631 1140                        i2l1625 0F64                        i2l1811 05E0  
                      i2l1803 05BE                        i2l1629 113C                __CFG_WDTEN$OFF 000000  
                      i2l1825 066E                        i2l1833 06E4                        i2l1921 0A34  
                      i2l1691 0C42                        i2l1931 0A7A                        i2l1589 0D28  
                      i2l1685 0C22                        i2l1695 0C5A                        i2l1927 0A70  
                      i2l1689 0C30                        i2l1849 075C                        i2l1937 0A92  
                      i2l1699 0C88                        i2l1797 058E                        i2l1977 0DE6  
                      i2l1979 0E0C                     ??i2_fputc 0006                     ??i2_fputs 000F  
                      _PTCON0 000F7F                        _PTCON1 000F7E                        _SPBRG1 000FAF  
                   ??i2_putch 0001                __CFG_WINEN$OFF 000000                        _PTPERH 000F7A  
                      _PTPERL 000F7B                     ??_InitApp 0070         ??_ConfigureOscillator 0070  
                      i2pad@i 0019                        i2pad@p 0016                        i2pad@w 001B  
                      i2_xtoa 0554                __CFG_SSPMX$RC7 000000                  vfprintf@cfmt 00CC  
            __end_of_high_isr 0B6A                 i2vfprintf@fmt 0059                __CFG_STVREN$ON 000000  
                 ?i2_vfprintf 0057                        clear_0 110E                        clear_1 111A  
                      _printf 115C                        pad@buf 0083                        _strlen 10DA  
                      fputc@c 0071                        fputs@c 007E                        fputs@i 007F  
                      fputs@s 007A                     ??_isalpha 0072                     ??_islower 0072  
                __mediumconst 0000                     ??_low_isr 006F                        tblptrh 000FF7  
                   ??_isupper 0072                        tblptrl 000FF6                        tblptru 000FF8  
            __end_of_vfprintf 0DD2                        xtoa@fp 008C                     ??_toupper 0078  
           __end_ofi2_isalpha 0FE6                    __accesstop 0060       __end_of__initialization 1120  
           __end_ofi2_islower 10AA             __end_ofi2_isupper 10DA               __CFG_FLTAMX$RC1 000000  
               ___rparam_used 000001               __CFG_T1OSCMX$ON 000000             __end_ofi2_toupper 0F08  
               __end_ofi2_pad 0CA2                __pcstackCOMRAM 0001                 __end_of_fputc 0D10  
               __end_of_fputs 0F44                 __end_of_putch 11FC                   i2printf@fmt 0060  
                 i2printf@ret 0062                   i2putch@byte 0001                       ??i2_pad 0018  
              i2vfpfcnvrt@fmt 0046                     ?i2_printf 0060                i2vfpfcnvrt@llu 004E  
                   ?i2_strlen 0001                       ??_fputc 0075                       ??_fputs 007E  
                     ??_putch 0070                    __pbssBANK0 00D6                    __pbssBANK1 0100  
         __size_ofi2_vfprintf 0056                       ?i2_xtoa 001D                i2_toupper$1335 000D  
             __CFG_WDPS$32768 000000                       ?_printf 00CE                       ?_strlen 0070  
             __CFG_PWM4MX$RB5 000000            __size_of_vfpfcnvrt 01A2                    ??i2_printf 005F  
                  ??i2_strlen 0003                       _PWMCON0 000F6F                       _PWMCON1 000F6E  
                   ?_high_isr 0001               __CFG_PWMPIN$OFF 000000                       i2_fputc 0D10  
                     i2_fputs 0F44                       i2pad@fp 0012                       i2_putch 11FC  
                     _InitApp 120E               __CFG_PWRTEN$OFF 000000               __size_ofi2_xtoa 0232  
                     i2xtoa@c 0042                       i2xtoa@d 001F                       i2xtoa@i 0040  
                     i2xtoa@n 0038                       i2xtoa@p 0034                       i2xtoa@w 0036  
                     i2xtoa@x 0027                       __Hparam 0000                       __Lparam 0000  
                   ?_vfprintf 00C6                i2vfprintf@cfmt 005D                  __psmallconst 0300  
                ?i2_vfpfcnvrt 0044                       __pcinit 1108                    _init_timer 1184  
                     __ramtop 0300                    _init_usart 11CE                       __ptext0 11AA  
                     __ptext1 0E74                       __ptext2 115C                       __ptext3 0D7C  
                     __ptext4 0786                       __ptext5 0322                       __ptext6 0E28  
                     __ptext7 0FE6                       __ptext8 0B6A                       __ptext9 10DA  
             __size_of_printf 0028                     _T0CONbits 000FD5               __size_of_strlen 002E  
                __size_of_pad 009E                       _isalpha 0F7C                       _islower 0FE6  
                     _low_isr 0018                       _isupper 1018                    ??_high_isr 0066  
              __pintcode_body 0AC6                       _toupper 0E28          end_of_initialization 1120  
                     fputc@fp 0073                       int_func 0AC6                       fputs@fp 007C  
           __end_of_vfpfcnvrt 0928                       postdec2 000FDD                    _timer0_var 00E0  
                     postinc0 000FEE                       postinc1 000FE6                       postinc2 000FDE  
                ??i2_vfprintf 005D                    ??_vfprintf 00CC                       strlen@a 0072  
                     strlen@s 0070                     _PORTBbits 000F81                     _PORTDbits 000F83  
                   _TRISCbits 000F94                     _TRISDbits 000F95                     _PWMPeriod 00DE  
 __end_of_ConfigureOscillator 121E            __end_ofi2_vfprintf 0E28                     i2_isalpha 0FB2  
                   i2_islower 107A                __end_ofi2_xtoa 0786                     i2_isupper 10AA  
                   i2_toupper 0EBE              __CFG_EXCLKMX$RC3 000000                   vfpfcnvrt@ap 00B7  
                 vfpfcnvrt@fp 00B3                   _BAUDCONbits 000FAA                   ?_init_timer 0001  
                 ?_init_usart 0001                     i2fputc@fp 0004                     i2fputs@fp 000D  
              __end_of_printf 1184                __end_of_strlen 1108           start_initialization 1108  
                 __end_of_pad 0C08                  i2vfpfcnvrt@c 0056             __size_ofi2_printf 0030  
           __size_ofi2_strlen 002A                     i2strlen@a 0003                     i2strlen@s 0001  
                    ??i2_xtoa 0028                    ?i2_isalpha 0001                    ?i2_islower 0001  
                  ?i2_isupper 0001                   vfprintf@fmt 00C8                  i2vfprintf@ap 005B  
                i2vfprintf@fp 0057                    ?i2_toupper 0007                      ??_printf 00D2  
                    ??_strlen 0072          __size_ofi2_vfpfcnvrt 019E                 __pcstackBANK0 0060  
                    ?i2_fputc 0002                      ?i2_fputs 000B                      ?i2_putch 0001  
           __size_of_high_isr 0B62           __size_of_init_timer 0026           __size_of_init_usart 001A  
                    ?_InitApp 0001                     __pintcode 0008                   __pintcodelo 0018  
           __size_of_vfprintf 0056                   __smallconst 0300                      ?_isalpha 0070  
              __size_ofi2_pad 009A                      ?_islower 0070                      ?_low_isr 0001  
                    ?_isupper 0070                __size_of_fputc 006E                __size_of_fputs 003C  
                    ?_toupper 0076                __size_of_putch 0014                   ??i2_isalpha 0003  
                    i2u102_40 0D20                      i2u111_40 10A2                      i2u104_40 0D68  
                    i2u112_40 10A4                      i2u130_40 10D2                      i2u131_40 10D4  
                    i2u132_40 0EE6                      i2u133_40 0EE8                   ??i2_islower 0003  
                    i2u128_40 0FDE                      i2u160_40 064E                      i2u129_40 0FE0  
                    i2u153_40 0568                      i2u162_40 06C0                      i2u162_45 06AE  
                    i2u163_40 06F4                      i2u155_40 05DC                      i2u156_40 0612  
                    i2u165_40 0716                      i2u157_40 0614                      i2u165_41 0714  
                    i2u166_40 0724                      i2u167_40 072A                      i2u159_40 064C  
                    i2u175_40 099A                      i2u183_40 0B30                      i2u183_46 0B32  
                 ??i2_isupper 0003                      _RCONbits 000FD0                   ??i2_toupper 0009  
                   _vfpfcnvrt 0786                      i2_printf 104A                      i2pad@buf 0014  
                    i2_strlen 1132                    vfpfcnvrt@c 00C5                      i2fputc@c 0002  
                    i2fputs@c 000F                      i2fputs@i 0010                      i2fputs@s 000B  
            __size_ofi2_fputc 006C              __size_ofi2_fputs 0038              __size_ofi2_putch 0012  
                    i2xtoa@fp 001D              __size_of_InitApp 000E                      __Hrparam 0000  
                  vfprintf@ap 00CA                      __Lrparam 0000                    vfprintf@fp 00C6  
                __Lsmallconst 0300                    ?_vfpfcnvrt 00B3                  ??_init_timer 0070  
                ??_init_usart 0070              __size_of_isalpha 0036              __size_of_islower 0032  
            __size_of_low_isr 000E                      __ptext10 0F08                      __ptext11 0CA2  
                    __ptext12 11E8                      __ptext21 104A                      __ptext13 1018  
                    __ptext30 0D10                      __ptext22 0DD2                      __ptext14 0F7C  
                    __ptext31 11FC                      __ptext23 0928                      __ptext15 120E  
                    __ptext32 10AA                      __ptext24 0554                      __ptext16 11CE  
                    __ptext33 0FB2                      __ptext25 0EBE                      __ptext17 1184  
                    __ptext26 107A                      __ptext18 121C                      __ptext27 0C08  
                    __ptext28 1132                      __ptext29 0F44              __size_of_isupper 0032  
                    _high_isr 0008              __size_of_toupper 004C                 __size_of_main 0024  
               __size_of_test 004A                 __size_of_xtoa 0232            __end_of_init_timer 11AA  
          __end_of_init_usart 11E8  __size_of_ConfigureOscillator 0002                      int$flags 005F  
                    _xtoa$805 009F                      _xtoa$806 00A1                      _vfprintf 0D7C  
                   printf@fmt 00CE                     putch@byte 0070                    _INTCONbits 000FF2  
                    isalpha@c 0070                      intlevel1 0000                      intlevel2 0000  
                    islower@c 0070                    _RCSTA1bits 000FAB                      isupper@c 0070  
                 _PWMCON0bits 000F6F                      printf@ap 00D4                 ??i2_vfpfcnvrt 004A  
                 ??_vfpfcnvrt 00B9                    _PTCON0bits 000F7F                      toupper@c 0076  
